(dp1
S'regimentdata'
p2
(dp3
S'24'
p4
ccopy_reg
_reconstructor
p5
(canw.war.regimentdata
RegimentData
p6
c__builtin__
object
p7
NtRp8
(dp9
S'A'
F0
sS'costIA'
p10
F96
sS'costEC'
p11
F0
sS'costAL'
p12
F0
sS'I'
F0
sS'defaultAttributes'
p13
(S'id'
p14
S'name'
p15
S'abr'
p16
S'costCR'
p17
S'costAL'
p18
S'costEC'
p19
S'costIA'
p20
S'techReq'
p21
S'description'
p22
S'power'
p23
S'L'
S'I'
S'M'
S'A'
tp24
sS'description'
p25
S'Heavy Plasma Infantry'
p26
sS'M'
F50
sS'L'
F25
sS'costCR'
p27
F3000
sS'power'
p28
F1500
sS'abr'
p29
S'HPI'
p30
sS'techReq'
p31
S'254'
p32
sS'id'
p33
S'24'
p34
sS'name'
p35
S'Heavy Plasma Infantry'
p36
sbsS'25'
p37
g5
(g6
g7
NtRp38
(dp39
S'A'
F100
sg10
F0
sg11
F0
sg12
F180
sS'I'
F0
sg13
g24
sg25
S'Light Plasma Mechanized'
p40
sS'M'
F0
sS'L'
F0
sg27
F1800
sg28
F900
sg29
S'LPM'
p41
sg31
S'227'
p42
sg33
S'25'
p43
sg35
S'Light Plasma Mechanized'
p44
sbsS'26'
p45
g5
(g6
g7
NtRp46
(dp47
S'A'
F100
sg10
F0
sg11
F0
sg12
F240
sS'I'
F0
sg13
g24
sg25
S'Medium Plasma Mechanized'
p48
sS'M'
F0
sS'L'
F0
sg27
F2400
sg28
F1200
sg29
S'MPM'
p49
sg31
S'242'
p50
sg33
S'26'
p51
sg35
S'Medium Plasma Mechanized'
p52
sbsS'27'
p53
g5
(g6
g7
NtRp54
(dp55
S'A'
F100
sg10
F0
sg11
F0
sg12
F300
sS'I'
F0
sg13
g24
sg25
S'Heavy Plasma Mechanized'
p56
sS'M'
F0
sS'L'
F0
sg27
F3000
sg28
F1500
sg29
S'HPM'
p57
sg31
S'255'
p58
sg33
S'27'
p59
sg35
S'Heavy Plasma Mechanized'
p60
sbsS'20'
p61
g5
(g6
g7
NtRp62
(dp63
S'A'
F0
sg10
F0
sg11
F192
sg12
F0
sS'I'
F50
sg13
g24
sg25
S'Heavy Fusion Artillery'
p64
sS'M'
F0
sS'L'
F50
sg27
F3000
sg28
F900
sg29
S'HFA'
p65
sg31
S'156'
p66
sg33
S'20'
p67
sg35
S'Heavy Fusion Artillery'
p68
sbsS'21'
p69
g5
(g6
g7
NtRp70
(dp71
S'A'
F0
sg10
F0
sg11
F0
sg12
F0
sS'I'
F0
sg13
g24
sg25
S'Plasma Militia'
p72
sS'M'
F0
sS'L'
F0
sg27
F0
sg28
F1000
sg29
S'PML'
p73
sg31
S'201'
p74
sg33
S'21'
p75
sg35
S'Plasma Militia'
p76
sbsS'22'
p77
g5
(g6
g7
NtRp78
(dp79
S'A'
F0
sg10
F48
sg11
F0
sg12
F0
sS'I'
F0
sg13
g24
sg25
S'Light Plasma Infantry'
p80
sS'M'
F50
sS'L'
F25
sg27
F1800
sg28
F900
sg29
S'LPI'
p81
sg31
S'226'
p82
sg33
S'22'
p83
sg35
S'Light Plasma Infantry'
p84
sbsS'23'
p85
g5
(g6
g7
NtRp86
(dp87
S'A'
F0
sg10
F72
sg11
F0
sg12
F0
sS'I'
F0
sg13
g24
sg25
S'Medium Plasma Infantry'
p88
sS'M'
F50
sS'L'
F25
sg27
F2400
sg28
F1200
sg29
S'MPI'
p89
sg31
S'241'
p90
sg33
S'23'
p91
sg35
S'Medium Plasma Infantry'
p92
sbsS'28'
p93
g5
(g6
g7
NtRp94
(dp95
S'A'
F0
sg10
F0
sg11
F96
sg12
F0
sS'I'
F50
sg13
g24
sg25
S'Light Plasma Artillery'
p96
sS'M'
F0
sS'L'
F50
sg27
F1800
sg28
F900
sg29
S'LPA'
p97
sg31
S'228'
p98
sg33
S'28'
p99
sg35
S'Light Plasma Artillery'
p100
sbsS'29'
p101
g5
(g6
g7
NtRp102
(dp103
S'A'
F0
sg10
F0
sg11
F144
sg12
F0
sS'I'
F50
sg13
g24
sg25
S'Medium Plasma Artillery'
p104
sS'M'
F0
sS'L'
F50
sg27
F2400
sg28
F1200
sg29
S'MPA'
p105
sg31
S'243'
p106
sg33
S'29'
p107
sg35
S'Medium Plasma Artillery'
p108
sbsS'1'
g5
(g6
g7
NtRp109
(dp110
S'A'
F0
sg10
F0
sg11
F0
sg12
F0
sS'I'
F0
sg13
g24
sg25
S'Nuclear Militia'
p111
sS'M'
F0
sS'L'
F0
sg27
F0
sg28
F150
sg29
S'NML'
p112
sg31
S'1'
sg33
S'1'
sg35
S'Nuclear Militia'
p113
sbsS'3'
g5
(g6
g7
NtRp114
(dp115
S'A'
F0
sg10
F72
sg11
F0
sg12
F0
sS'I'
F0
sg13
g24
sg25
S'Medium Nuclear Infantry'
p116
sS'M'
F50
sS'L'
F25
sg27
F2400
sg28
F200
sg29
S'MNI'
p117
sg31
S'41'
p118
sg33
S'3'
sg35
S'Medium Nuclear Infantry'
p119
sbsS'2'
g5
(g6
g7
NtRp120
(dp121
S'A'
F0
sg10
F48
sg11
F0
sg12
F0
sS'I'
F0
sg13
g24
sg25
S'Light Nuclear Infantry'
p122
sS'M'
F50
sS'L'
F25
sg27
F1800
sg28
F100
sg29
S'LNI'
p123
sg31
S'26'
p124
sg33
S'2'
sg35
S'Light Nuclear Infantry'
p125
sbsS'5'
g5
(g6
g7
NtRp126
(dp127
S'A'
F100
sg10
F0
sg11
F0
sg12
F180
sS'I'
F0
sg13
g24
sg25
S'Light Nuclear Mechanized'
p128
sS'M'
F0
sS'L'
F0
sg27
F1800
sg28
F100
sg29
S'LNM'
p129
sg31
S'27'
p130
sg33
S'5'
sg35
S'Light Nuclear Mechanized'
p131
sbsS'4'
g5
(g6
g7
NtRp132
(dp133
S'A'
F0
sg10
F96
sg11
F0
sg12
F0
sS'I'
F0
sg13
g24
sg25
S'Heavy Nuclear Infantry'
p134
sS'M'
F50
sS'L'
F25
sg27
F3000
sg28
F300
sg29
S'HNI'
p135
sg31
S'54'
p136
sg33
S'4'
sg35
S'Heavy Nuclear Infantry'
p137
sbsS'7'
g5
(g6
g7
NtRp138
(dp139
S'A'
F100
sg10
F0
sg11
F0
sg12
F300
sS'I'
F0
sg13
g24
sg25
S'Heavy Nuclear Mechanized'
p140
sS'M'
F0
sS'L'
F0
sg27
F3000
sg28
F300
sg29
S'HNM'
p141
sg31
S'55'
p142
sg33
S'7'
sg35
S'Heavy Nuclear Mechanized'
p143
sbsS'6'
g5
(g6
g7
NtRp144
(dp145
S'A'
F100
sg10
F0
sg11
F0
sg12
F240
sS'I'
F0
sg13
g24
sg25
S'Medium Nuclear Mechanized'
p146
sS'M'
F0
sS'L'
F0
sg27
F2400
sg28
F200
sg29
S'MNM'
p147
sg31
S'42'
p148
sg33
S'6'
sg35
S'Medium Nuclear Mechanized'
p149
sbsS'9'
g5
(g6
g7
NtRp150
(dp151
S'A'
F0
sg10
F0
sg11
F144
sg12
F0
sS'I'
F50
sg13
g24
sg25
S'Medium Nuclear Artillery'
p152
sS'M'
F0
sS'L'
F50
sg27
F2400
sg28
F200
sg29
S'MNA'
p153
sg31
S'43'
p154
sg33
S'9'
sg35
S'Medium Nuclear Artillery'
p155
sbsS'8'
g5
(g6
g7
NtRp156
(dp157
S'A'
F0
sg10
F0
sg11
F96
sg12
F0
sS'I'
F50
sg13
g24
sg25
S'Light Nuclear Artillery'
p158
sS'M'
F0
sS'L'
F50
sg27
F1800
sg28
F100
sg29
S'LNA'
p159
sg31
S'28'
p160
sg33
S'8'
sg35
S'Light Nuclear Artillery'
p161
sbsS'11'
p162
g5
(g6
g7
NtRp163
(dp164
S'A'
F0
sg10
F0
sg11
F0
sg12
F0
sS'I'
F0
sg13
g24
sg25
S'Fusion Militia'
p165
sS'M'
F0
sS'L'
F0
sg27
F0
sg28
F400
sg29
S'FML'
p166
sg31
S'101'
p167
sg33
S'11'
p168
sg35
S'Fusion Militia'
p169
sbsS'10'
p170
g5
(g6
g7
NtRp171
(dp172
S'A'
F0
sg10
F0
sg11
F192
sg12
F0
sS'I'
F50
sg13
g24
sg25
S'Heavy Nuclear Artillery'
p173
sS'M'
F0
sS'L'
F50
sg27
F3000
sg28
F300
sg29
S'HNA'
p174
sg31
S'56'
p175
sg33
S'10'
p176
sg35
S'Heavy Nuclear Artillery'
p177
sbsS'13'
p178
g5
(g6
g7
NtRp179
(dp180
S'A'
F0
sg10
F72
sg11
F0
sg12
F0
sS'I'
F0
sg13
g24
sg25
S'Medium Fusion Infantry'
p181
sS'M'
F50
sS'L'
F25
sg27
F2400
sg28
F600
sg29
S'MFI'
p182
sg31
S'141'
p183
sg33
S'13'
p184
sg35
S'Medium Fusion Infantry'
p185
sbsS'12'
p186
g5
(g6
g7
NtRp187
(dp188
S'A'
F0
sg10
F48
sg11
F0
sg12
F0
sS'I'
F0
sg13
g24
sg25
S'Light Fusion Infantry'
p189
sS'M'
F50
sS'L'
F25
sg27
F1800
sg28
F300
sg29
S'LFI'
p190
sg31
S'126'
p191
sg33
S'12'
p192
sg35
S'Light Fusion Infantry'
p193
sbsS'15'
p194
g5
(g6
g7
NtRp195
(dp196
S'A'
F100
sg10
F0
sg11
F0
sg12
F180
sS'I'
F0
sg13
g24
sg25
S'Light Fusion Mechanized'
p197
sS'M'
F0
sS'L'
F0
sg27
F1800
sg28
F300
sg29
S'LFM'
p198
sg31
S'127'
p199
sg33
S'15'
p200
sg35
S'Light Fusion Mechanized'
p201
sbsS'14'
p202
g5
(g6
g7
NtRp203
(dp204
S'A'
F0
sg10
F96
sg11
F0
sg12
F0
sS'I'
F0
sg13
g24
sg25
S'Heavy Fusion Infantry'
p205
sS'M'
F50
sS'L'
F25
sg27
F3000
sg28
F900
sg29
S'HFI'
p206
sg31
S'154'
p207
sg33
S'14'
p208
sg35
S'Heavy Fusion Infantry'
p209
sbsS'17'
p210
g5
(g6
g7
NtRp211
(dp212
S'A'
F100
sg10
F0
sg11
F0
sg12
F300
sS'I'
F0
sg13
g24
sg25
S'Heavy Fusion Mechanized'
p213
sS'M'
F0
sS'L'
F0
sg27
F3000
sg28
F900
sg29
S'HFM'
p214
sg31
S'155'
p215
sg33
S'17'
p216
sg35
S'Heavy Fusion Mechanized'
p217
sbsS'16'
p218
g5
(g6
g7
NtRp219
(dp220
S'A'
F100
sg10
F0
sg11
F0
sg12
F240
sS'I'
F0
sg13
g24
sg25
S'Medium Fusion Mechanized'
p221
sS'M'
F0
sS'L'
F0
sg27
F2400
sg28
F600
sg29
S'MFM'
p222
sg31
S'142'
p223
sg33
S'16'
p224
sg35
S'Medium Fusion Mechanized'
p225
sbsS'19'
p226
g5
(g6
g7
NtRp227
(dp228
S'A'
F0
sg10
F0
sg11
F144
sg12
F0
sS'I'
F50
sg13
g24
sg25
S'Medium Fusion Artillery'
p229
sS'M'
F0
sS'L'
F50
sg27
F2400
sg28
F600
sg29
S'MFA'
p230
sg31
S'143'
p231
sg33
S'19'
p232
sg35
S'Medium Fusion Artillery'
p233
sbsS'18'
p234
g5
(g6
g7
NtRp235
(dp236
S'A'
F0
sg10
F0
sg11
F96
sg12
F0
sS'I'
F50
sg13
g24
sg25
S'Light Fusion Artillery'
p237
sS'M'
F0
sS'L'
F50
sg27
F1800
sg28
F300
sg29
S'LFA'
p238
sg31
S'128'
p239
sg33
S'18'
p240
sg35
S'Light Fusion Artillery'
p241
sbsS'30'
p242
g5
(g6
g7
NtRp243
(dp244
S'A'
F0
sg10
F0
sg11
F192
sg12
F0
sS'I'
F50
sg13
g24
sg25
S'Heavy Plasma Artillery'
p245
sS'M'
F0
sS'L'
F50
sg27
F3000
sg28
F1500
sg29
S'HPA'
p246
sg31
S'256'
p247
sg33
S'30'
p248
sg35
S'Heavy Plasma Artillery'
p249
sbssS'industrydata'
p250
(dp251
S'42'
p252
g5
(canw.aw.industrydata
IndustryData
p253
g7
NtRp254
(dp255
g10
F0
sg11
F0
sg12
F300
sg13
(S'id'
p256
S'name'
p257
S'abr'
p258
S'costCR'
p259
S'costAL'
p260
S'costEC'
p261
S'costIA'
p262
S'techReq'
p263
S'description'
p264
S'cities'
p265
S'output'
p266
tp267
sg25
S'Allows for 30 points of research per round'
p268
sg27
F3000
sg29
S'IRC'
p269
sS'cities'
p270
I1
sS'output'
p271
F30
sg31
S'207'
p272
sg33
S'42'
p273
sg35
S'Intelligent Research Center'
p274
sbsS'24'
p275
g5
(g253
g7
NtRp276
(dp277
g10
F0
sg11
F0
sg12
F400
sg13
g267
sg25
S'Provides 6 Plasma Militia Regiments in defence'
p278
sg27
F4000
sg29
S'IMF'
p279
sg270
I2
sg271
F6
sg31
S'201'
p280
sg33
S'24'
p281
sg35
S'Intelligent Militia Fortress'
p282
sbsS'25'
p283
g5
(g253
g7
NtRp284
(dp285
g10
F0
sg11
F0
sg12
F100
sg13
g267
sg25
S'Trains 1 Starship Cadet per round'
p286
sg27
F1000
sg29
S'BFA'
p287
sg270
I1
sg271
F1
sg31
S'9'
sg33
S'25'
p288
sg35
S'Basic Fleet Academy'
p289
sbsS'26'
p290
g5
(g253
g7
NtRp291
(dp292
g10
F0
sg11
F0
sg12
F200
sg13
g267
sg25
S'Trains 2 Starship Cadets per round'
p293
sg27
F2000
sg29
S'AFA'
p294
sg270
I1
sg271
F2
sg31
S'109'
p295
sg33
S'26'
p296
sg35
S'Advanced Fleet Academy'
p297
sbsS'27'
p298
g5
(g253
g7
NtRp299
(dp300
g10
F0
sg11
F0
sg12
F300
sg13
g267
sg25
S'Trains 3 Starship Cadets per round'
p301
sg27
F3000
sg29
S'IFA'
p302
sg270
I1
sg271
F3
sg31
S'209'
p303
sg33
S'27'
p304
sg35
S'Intelligent Fleet Academy'
p305
sbsS'20'
p306
g5
(g253
g7
NtRp307
(dp308
g10
F0
sg11
F0
sg12
F200
sg13
g267
sg25
S'Jams 40 Radar points'
p309
sg27
F2000
sg29
S'AJS'
p310
sg270
I1
sg271
F40
sg31
S'113'
p311
sg33
S'20'
p312
sg35
S'Advanced Jamming Station'
p313
sbsS'21'
p314
g5
(g253
g7
NtRp315
(dp316
g10
F0
sg11
F0
sg12
F300
sg13
g267
sg25
S'Jams 60 Radar points'
p317
sg27
F3000
sg29
S'IJS'
p318
sg270
I1
sg271
F60
sg31
S'213'
p319
sg33
S'21'
p320
sg35
S'Intelligent Jamming Station'
p321
sbsS'22'
p322
g5
(g253
g7
NtRp323
(dp324
g10
F0
sg11
F0
sg12
F200
sg13
g267
sg25
S'Provides 2 Nuclear Militia Regiments in defence'
p325
sg27
F2000
sg29
S'BMF'
p326
sg270
I2
sg271
F2
sg31
S'1'
sg33
S'22'
p327
sg35
S'Basic Militia Fortress'
p328
sbsS'23'
p329
g5
(g253
g7
NtRp330
(dp331
g10
F0
sg11
F0
sg12
F300
sg13
g267
sg25
S'Provides 4 Fusion Militia Regiments in defence'
p332
sg27
F3000
sg29
S'AMF'
p333
sg270
I2
sg271
F4
sg31
S'101'
p334
sg33
S'23'
p335
sg35
S'Advanced Militia Fortress'
p336
sbsS'28'
p337
g5
(g253
g7
NtRp338
(dp339
g10
F0
sg11
F0
sg12
F100
sg13
g267
sg25
S'Trains up to 2 Marine Regiments per round'
p340
sg27
F1000
sg29
S'BMA'
p341
sg270
I1
sg271
F2
sg31
S'10'
p342
sg33
S'28'
p343
sg35
S'Basic Marine Academy'
p344
sbsS'29'
p345
g5
(g253
g7
NtRp346
(dp347
g10
F0
sg11
F0
sg12
F200
sg13
g267
sg25
S'Trains up to 4 Marine Regiments per round'
p348
sg27
F2000
sg29
S'AMA'
p349
sg270
I1
sg271
F4
sg31
S'110'
p350
sg33
S'29'
p351
sg35
S'Advanced Marine Academy'
p352
sbsS'40'
p353
g5
(g253
g7
NtRp354
(dp355
g10
F0
sg11
F0
sg12
F100
sg13
g267
sg25
S'Allows for 15 points of research per round'
p356
sg27
F1000
sg29
S'BRC'
p357
sg270
I1
sg271
F15
sg31
S'7'
sg33
S'40'
p358
sg35
S'Basic Research Center'
p359
sbsS'41'
p360
g5
(g253
g7
NtRp361
(dp362
g10
F0
sg11
F0
sg12
F200
sg13
g267
sg25
S'Allows for 20 points of research per round'
p363
sg27
F2000
sg29
S'ARC'
p364
sg270
I1
sg271
F20
sg31
S'107'
p365
sg33
S'41'
p366
sg35
S'Advanced Research Center'
p367
sbsS'1'
g5
(g253
g7
NtRp368
(dp369
g10
F0
sg11
F0
sg12
F100
sg13
g267
sg25
S'Adds 10% to total Planet Alloy Production'
p370
sg27
F1000
sg29
S'BAF'
p371
sg270
I1
sg271
F0.10000000000000001
sg31
S'11'
p372
sg33
S'1'
sg35
S'Basic Alloy Factory'
p373
sbsS'3'
g5
(g253
g7
NtRp374
(dp375
g10
F0
sg11
F0
sg12
F300
sg13
g267
sg25
S'Adds 30% to total Planet Alloy Production'
p376
sg27
F3000
sg29
S'IAF'
p377
sg270
I1
sg271
F0.29999999999999999
sg31
S'211'
p378
sg33
S'3'
sg35
S'Intelligent Alloy Factory'
p379
sbsS'2'
g5
(g253
g7
NtRp380
(dp381
g10
F0
sg11
F0
sg12
F200
sg13
g267
sg25
S'Adds 20% to total Planet Alloy Production'
p382
sg27
F2000
sg29
S'AAF'
p383
sg270
I1
sg271
F0.20000000000000001
sg31
S'111'
p384
sg33
S'2'
sg35
S'Advanced Alloy Factory'
p385
sbsS'5'
g5
(g253
g7
NtRp386
(dp387
g10
F0
sg11
F0
sg12
F200
sg13
g267
sg25
S'Adds 20% to total Planet Energy Crystal Production'
p388
sg27
F2000
sg29
S'ACM'
p389
sg270
I1
sg271
F0.20000000000000001
sg31
S'118'
p390
sg33
S'5'
sg35
S'Advanced Crystal Mine'
p391
sbsS'4'
g5
(g253
g7
NtRp392
(dp393
g10
F0
sg11
F0
sg12
F100
sg13
g267
sg25
S'Adds 10% to total Planet Energy Crystal Production'
p394
sg27
F1000
sg29
S'BCM'
p395
sg270
I1
sg271
F0.10000000000000001
sg31
S'18'
p396
sg33
S'4'
sg35
S'Basic Crystal Mine'
p397
sbsS'7'
g5
(g253
g7
NtRp398
(dp399
g10
F0
sg11
F0
sg12
F100
sg13
g267
sg25
S'Adds 10% to total Planet Intelligent Array Production'
p400
sg27
F1000
sg29
S'BSS'
p401
sg270
I1
sg271
F0.10000000000000001
sg31
S'29'
p402
sg33
S'7'
sg35
S'Basic Synthetic System'
p403
sbsS'6'
g5
(g253
g7
NtRp404
(dp405
g10
F0
sg11
F0
sg12
F300
sg13
g267
sg25
S'Adds 30% to total Planet Energy Crystal Production'
p406
sg27
F3000
sg29
S'ICM'
p407
sg270
I1
sg271
F0.29999999999999999
sg31
S'218'
p408
sg33
S'6'
sg35
S'Intelligent Crystal Mine'
p409
sbsS'9'
g5
(g253
g7
NtRp410
(dp411
g10
F0
sg11
F0
sg12
F300
sg13
g267
sg25
S'Adds 30% to total Planet Intelligent Array Production'
p412
sg27
F3000
sg29
S'ISS'
p413
sg270
I1
sg271
F0.29999999999999999
sg31
S'229'
p414
sg33
S'9'
sg35
S'Intelligent Synthetic System'
p415
sbsS'8'
g5
(g253
g7
NtRp416
(dp417
g10
F0
sg11
F0
sg12
F200
sg13
g267
sg25
S'Adds 20% to total Planet Intelligent Array Production'
p418
sg27
F2000
sg29
S'ASS'
p419
sg270
I1
sg271
F0.20000000000000001
sg31
S'129'
p420
sg33
S'8'
sg35
S'Advanced Synthetic System'
p421
sbsS'39'
p422
g5
(g253
g7
NtRp423
(dp424
g10
F75
sg11
F150
sg12
F300
sg13
g267
sg25
S'Allows for 20 ships/trade routes to travel though gate per round'
p425
sg27
F3000
sg29
S'IWG'
p426
sg270
I1
sg271
F20
sg31
S'225'
p427
sg33
S'39'
p428
sg35
S'Intelligent Warp Gate'
p429
sbsS'38'
p430
g5
(g253
g7
NtRp431
(dp432
g10
F50
sg11
F100
sg12
F200
sg13
g267
sg25
S'Allows for 10 ships/trade routes to travel though gate per round'
p433
sg27
F2000
sg29
S'AWG'
p434
sg270
I1
sg271
F10
sg31
S'125'
p435
sg33
S'38'
p436
sg35
S'Advanced Warp Gate'
p437
sbsS'11'
p438
g5
(g253
g7
NtRp439
(dp440
g10
F0
sg11
F0
sg12
F200
sg13
g267
sg25
S'Allows 2 simulation point to be used per round per center'
p441
sg27
F2000
sg29
S'ASC'
p442
sg270
I1
sg271
F2
sg31
S'105'
p443
sg33
S'11'
p444
sg35
S'Advanced Simulation Center'
p445
sbsS'10'
p446
g5
(g253
g7
NtRp447
(dp448
g10
F0
sg11
F0
sg12
F100
sg13
g267
sg25
S'Allows 1 simulation point to be used per round per center'
p449
sg27
F1000
sg29
S'BSC'
p450
sg270
I1
sg271
F1
sg31
S'5'
sg33
S'10'
p451
sg35
S'Basic Simulation Center'
p452
sbsS'13'
p453
g5
(g253
g7
NtRp454
(dp455
g10
F0
sg11
F0
sg12
F100
sg13
g267
sg25
S'Allows 1 starship design per round per center'
p456
sg27
F1000
sg29
S'BDC'
p457
sg270
I1
sg271
F1
sg31
S'3'
sg33
S'13'
p458
sg35
S'Basic Design Center'
p459
sbsS'12'
p460
g5
(g253
g7
NtRp461
(dp462
g10
F0
sg11
F0
sg12
F300
sg13
g267
sg25
S'Allows 3 simulation point to be used per round per center'
p463
sg27
F3000
sg29
S'ISC'
p464
sg270
I1
sg271
F3
sg31
S'205'
p465
sg33
S'12'
p466
sg35
S'Intelligent Simulation Center'
p467
sbsS'15'
p468
g5
(g253
g7
NtRp469
(dp470
g10
F0
sg11
F0
sg12
F300
sg13
g267
sg25
S'Allows 4 starship design per round per center'
p471
sg27
F3000
sg29
S'IDC'
p472
sg270
I1
sg271
F4
sg31
S'203'
p473
sg33
S'15'
p474
sg35
S'Intelligent Design Center'
p475
sbsS'14'
p476
g5
(g253
g7
NtRp477
(dp478
g10
F0
sg11
F0
sg12
F200
sg13
g267
sg25
S'Allows 2 starship design per round per center'
p479
sg27
F2000
sg29
S'ADC'
p480
sg270
I1
sg271
F2
sg31
S'103'
p481
sg33
S'14'
p482
sg35
S'Advanced Design Center'
p483
sbsS'17'
p484
g5
(g253
g7
NtRp485
(dp486
g10
F0
sg11
F0
sg12
F200
sg13
g267
sg25
S'Scans 20 Radar points to adjacent Systems'
p487
sg27
F2000
sg29
S'ARS'
p488
sg270
I1
sg271
F20
sg31
S'104'
p489
sg33
S'17'
p490
sg35
S'Advanced Radar Station'
p491
sbsS'16'
p492
g5
(g253
g7
NtRp493
(dp494
g10
F0
sg11
F0
sg12
F100
sg13
g267
sg25
S'Scans 10 Radar points to adjacent Systems'
p495
sg27
F1000
sg29
S'BRS'
p496
sg270
I1
sg271
F10
sg31
S'4'
sg33
S'16'
p497
sg35
S'Basic Radar Station'
p498
sbsS'19'
p499
g5
(g253
g7
NtRp500
(dp501
g10
F0
sg11
F0
sg12
F100
sg13
g267
sg25
S'Jams 20 Radar points'
p502
sg27
F1000
sg29
S'BJS'
p503
sg270
I1
sg271
F20
sg31
S'13'
p504
sg33
S'19'
p505
sg35
S'Basic Jamming Station'
p506
sbsS'18'
p507
g5
(g253
g7
NtRp508
(dp509
g10
F0
sg11
F0
sg12
F300
sg13
g267
sg25
S'Scans 30 Radar points to adjacent Systems'
p510
sg27
F3000
sg29
S'IRS'
p511
sg270
I1
sg271
F30
sg31
S'204'
p512
sg33
S'18'
p513
sg35
S'Intelligent Radar Station'
p514
sbsS'31'
p515
g5
(g253
g7
NtRp516
(dp517
g10
F100
sg11
F200
sg12
F400
sg13
g267
sg25
S'Allows for 192 slots worth of Starships to be constructed'
p518
sg27
F4000
sg29
S'BSY'
p519
sg270
I2
sg271
F192
sg31
S'15'
p520
sg33
S'31'
p521
sg35
S'Basic Shipyard'
p522
sbsS'30'
p523
g5
(g253
g7
NtRp524
(dp525
g10
F0
sg11
F0
sg12
F300
sg13
g267
sg25
S'Trains up to 6 Marine Regiments per round'
p526
sg27
F3000
sg29
S'IMA'
p527
sg270
I1
sg271
F6
sg31
S'210'
p528
sg33
S'30'
p529
sg35
S'Intelligent Marine Academy'
p530
sbsS'37'
p531
g5
(g253
g7
NtRp532
(dp533
g10
F25
sg11
F50
sg12
F100
sg13
g267
sg25
S'Allows for 5 ships/trade routes to travel though gate per round'
p534
sg27
F1000
sg29
S'BWG'
p535
sg270
I1
sg271
F5
sg31
S'25'
p536
sg33
S'37'
p537
sg35
S'Basic Warp Gate'
p538
sbsS'36'
p539
g5
(g253
g7
NtRp540
(dp541
g10
F300
sg11
F600
sg12
F1200
sg13
g267
sg25
S'Allows for 600 Marine Points per round'
p542
sg27
F12000
sg29
S'IMI'
p543
sg270
I2
sg271
F600
sg31
S'216'
p544
sg33
S'36'
p545
sg35
S'Intelligent Marine Installation'
p546
sbsS'35'
p547
g5
(g253
g7
NtRp548
(dp549
g10
F200
sg11
F400
sg12
F800
sg13
g267
sg25
S'Allows for 400 Marine Points per round'
p550
sg27
F8000
sg29
S'AMI'
p551
sg270
I2
sg271
F400
sg31
S'116'
p552
sg33
S'35'
p553
sg35
S'Advanced Marine Installation'
p554
sbsS'34'
p555
g5
(g253
g7
NtRp556
(dp557
g10
F100
sg11
F200
sg12
F400
sg13
g267
sg25
S'Allows for 200 Marine Points per round'
p558
sg27
F4000
sg29
S'BMI'
p559
sg270
I2
sg271
F200
sg31
S'16'
p560
sg33
S'34'
p561
sg35
S'Basic Marine Installation'
p562
sbsS'33'
p563
g5
(g253
g7
NtRp564
(dp565
g10
F300
sg11
F600
sg12
F1200
sg13
g267
sg25
S'Allows for 768 slots worth of Starships to be constructed'
p566
sg27
F12000
sg29
S'ISY'
p567
sg270
I2
sg271
F768
sg31
S'215'
p568
sg33
S'33'
p569
sg35
S'Intelligent Shipyard'
p570
sbsS'32'
p571
g5
(g253
g7
NtRp572
(dp573
g10
F200
sg11
F400
sg12
F800
sg13
g267
sg25
S'Allows for 384 slots worth of Starships to be constructed'
p574
sg27
F8000
sg29
S'ASY'
p575
sg270
I2
sg271
F384
sg31
S'115'
p576
sg33
S'32'
p577
sg35
S'Advanced Shipyard'
p578
sbssS'componentdata'
p579
(dp580
S'56'
p581
g5
(canw.war.componentdata
ComponentData
p582
g7
NtRp583
(dp584
S'repair'
p585
I0
sg11
F2
sg12
F6
sS'battery'
p586
I0
sS'typeAP'
p587
S''
sS'radar'
p588
I0
sS'maxHP'
p589
I50
sg33
S'56'
p590
sS'maxAmmo'
p591
I36
sg10
F2
sg13
(S'id'
p592
S'name'
p593
S'abr'
p594
S'costCR'
p595
S'costAL'
p596
S'costEC'
p597
S'costIA'
p598
S'techReq'
p599
S'description'
p600
S'maxAmmo'
p601
S'explosive'
p602
S'assault'
p603
S'engine'
p604
S'rotate'
p605
S'power'
p606
S'battery'
p607
S'repair'
p608
S'target'
p609
S'radar'
p610
S'genSP'
p611
S'maxSP'
p612
S'typeAP'
p613
S'maxAP'
p614
S'maxHP'
p615
S'mass'
p616
S'jamming'
p617
tp618
sg29
S'MNMA'
p619
sS'maxSP'
p620
I0
sg31
S'47'
p621
sS'jamming'
p622
I0
sS'engine'
p623
F0
sS'explosive'
p624
I1
sg25
S'Mass=1000\nMax Ammo=36'
p625
sg28
I0
sS'maxAP'
p626
I0
sS'genSP'
p627
I0
sS'assault'
p628
I0
sg35
S'Medium Nuclear Missile Ammo'
p629
sS'rotate'
p630
F0
sS'target'
p631
I0
sg27
F60
sS'mass'
p632
F1000
sbsS'54'
p633
g5
(g582
g7
NtRp634
(dp635
g585
I0
sg11
F0
sg12
F4
sg586
I0
sg587
S''
sg588
I0
sg589
I200
sg33
S'54'
p636
sg591
I100
sg10
F0
sg13
g618
sg29
S'ARGA'
p637
sg620
I0
sg31
S'270'
p638
sg622
I0
sg623
F0
sg624
I0
sg25
S'Mass=800\nMax Ammo=100'
p639
sg28
I0
sg626
I0
sg627
I0
sg628
I0
sg35
S'AMS Rail Gun Ammo'
p640
sg630
F0
sg631
I0
sg27
F50
sg632
F800
sbsS'42'
p641
g5
(g582
g7
NtRp642
(dp643
g585
I0
sg11
F2
sg12
F8
sg586
I0
sg587
S''
sg588
I0
sg589
I200
sg33
S'42'
p644
sg591
I24
sg10
F2
sg13
g618
sg29
S'HPTA'
p645
sg620
I0
sg31
S'263'
p646
sg622
I0
sg623
F0
sg624
I1
sg25
S'Mass=800\nMax Ammo=24'
p647
sg28
I0
sg626
I0
sg627
I0
sg628
I0
sg35
S'Heavy Plasma Torpedo Ammo'
p648
sg630
F0
sg631
I0
sg27
F80
sg632
F800
sbsS'48'
p649
g5
(g582
g7
NtRp650
(dp651
g585
I0
sg11
F2
sg12
F6
sg586
I0
sg587
S''
sg588
I0
sg589
I100
sg33
S'48'
p652
sg591
I20
sg10
F0
sg13
g618
sg29
S'MACA'
p653
sg620
I0
sg31
S'146'
p654
sg622
I0
sg623
F0
sg624
I0
sg25
S'Mass=900\nMax Ammo=20'
p655
sg28
I0
sg626
I0
sg627
I0
sg628
I0
sg35
S'Medium Auto Cannon Ammo'
p656
sg630
F0
sg631
I0
sg27
F60
sg632
F900
sbsS'43'
p657
g5
(g582
g7
NtRp658
(dp659
g585
I0
sg11
F2
sg12
F4
sg586
I0
sg587
S''
sg588
I0
sg589
I50
sg33
S'43'
p660
sg591
I32
sg10
F0
sg13
g618
sg29
S'LGGA'
p661
sg620
I0
sg31
S'32'
p662
sg622
I0
sg623
F0
sg624
I0
sg25
S'Mass=1000\nMax Ammo=32'
p663
sg28
I0
sg626
I0
sg627
I0
sg628
I0
sg35
S'Light Graviton Gun Ammo'
p664
sg630
F0
sg631
I0
sg27
F40
sg632
F1000
sbsS'60'
p665
g5
(g582
g7
NtRp666
(dp667
g585
I0
sg11
F2
sg12
F8
sg586
I0
sg587
S''
sg588
I0
sg589
I100
sg33
S'60'
p668
sg591
I24
sg10
F2
sg13
g618
sg29
S'HFMA'
p669
sg620
I0
sg31
S'161'
p670
sg622
I0
sg623
F0
sg624
I1
sg25
S'Mass=900\nMax Ammo=24'
p671
sg28
I0
sg626
I0
sg627
I0
sg628
I0
sg35
S'Heavy Fusion Missile Ammo'
p672
sg630
F0
sg631
I0
sg27
F80
sg632
F900
sbsS'61'
p673
g5
(g582
g7
NtRp674
(dp675
g585
I0
sg11
F2
sg12
F4
sg586
I0
sg587
S''
sg588
I0
sg589
I200
sg33
S'61'
p676
sg591
I48
sg10
F2
sg13
g618
sg29
S'LPMA'
p677
sg620
I0
sg31
S'233'
p678
sg622
I0
sg623
F0
sg624
I1
sg25
S'Mass=800\nMax Ammo=48'
p679
sg28
I0
sg626
I0
sg627
I0
sg628
I0
sg35
S'Light Plasma Missile Ammo'
p680
sg630
F0
sg631
I0
sg27
F40
sg632
F800
sbsS'62'
p681
g5
(g582
g7
NtRp682
(dp683
g585
I0
sg11
F2
sg12
F6
sg586
I0
sg587
S''
sg588
I0
sg589
I200
sg33
S'62'
p684
sg591
I36
sg10
F2
sg13
g618
sg29
S'MPMA'
p685
sg620
I0
sg31
S'247'
p686
sg622
I0
sg623
F0
sg624
I1
sg25
S'Mass=800\nMax Ammo=36'
p687
sg28
I0
sg626
I0
sg627
I0
sg628
I0
sg35
S'Medium Plasma Missile Ammo'
p688
sg630
F0
sg631
I0
sg27
F60
sg632
F800
sbsS'63'
p689
g5
(g582
g7
NtRp690
(dp691
g585
I0
sg11
F2
sg12
F8
sg586
I0
sg587
S''
sg588
I0
sg589
I200
sg33
S'63'
p692
sg591
I24
sg10
F2
sg13
g618
sg29
S'HPMA'
p693
sg620
I0
sg31
S'261'
p694
sg622
I0
sg623
F0
sg624
I1
sg25
S'Mass=800\nMax Ammo=24'
p695
sg28
I0
sg626
I0
sg627
I0
sg628
I0
sg35
S'Heavy Plasma Missile Ammo'
p696
sg630
F0
sg631
I0
sg27
F80
sg632
F800
sbsS'64'
p697
g5
(g582
g7
NtRp698
(dp699
g585
I0
sg11
F0
sg12
F0
sg586
I0
sg587
S''
sg588
I0
sg589
I0
sg33
S'64'
p700
sg591
I0
sg10
F0
sg13
g618
sg29
S'WC'
p701
sg620
I0
sg31
S'998'
p702
sg622
I0
sg623
F0
sg624
I0
sg25
S'Mass=1000'
p703
sg28
I0
sg626
I0
sg627
I0
sg628
I0
sg35
S'Weapon Component'
p704
sg630
F0
sg631
I0
sg27
F0
sg632
F1000
sbsS'49'
p705
g5
(g582
g7
NtRp706
(dp707
g585
I0
sg11
F2
sg12
F8
sg586
I0
sg587
S''
sg588
I0
sg589
I100
sg33
S'49'
p708
sg591
I16
sg10
F2
sg13
g618
sg29
S'HACA'
p709
sg620
I0
sg31
S'160'
p710
sg622
I0
sg623
F0
sg624
I0
sg25
S'Mass=900\nMax Ammo=16'
p711
sg28
I0
sg626
I0
sg627
I0
sg628
I0
sg35
S'Heavy Auto Cannon Ammo'
p712
sg630
F0
sg631
I0
sg27
F80
sg632
F900
sbsS'66'
p713
g5
(g582
g7
NtRp714
(dp715
g585
I0
sg11
F8
sg12
F20
sg586
I0
sg587
S''
sg588
I0
sg589
I100
sg33
S'66'
p716
sg591
I0
sg10
F16
sg13
g618
sg29
S'PJD'
p717
sg620
I0
sg31
S'170'
p718
sg622
I8
sg623
F0
sg624
I0
sg25
S'Mass=900\nJamming=8'
p719
sg28
I0
sg626
I0
sg627
I0
sg628
I0
sg35
S'Progressive Jamming Dishes'
p720
sg630
F0
sg631
I0
sg27
F400
sg632
F900
sbsS'67'
p721
g5
(g582
g7
NtRp722
(dp723
g585
I0
sg11
F12
sg12
F30
sg586
I0
sg587
S''
sg588
I0
sg589
I200
sg33
S'67'
p724
sg591
I0
sg10
F24
sg13
g618
sg29
S'UJD'
p725
sg620
I0
sg31
S'272'
p726
sg622
I12
sg623
F0
sg624
I0
sg25
S'Mass=800\nJamming=12'
p727
sg28
I0
sg626
I0
sg627
I0
sg628
I0
sg35
S'Ultra Jamming Dishes'
p728
sg630
F0
sg631
I0
sg27
F600
sg632
F800
sbsS'68'
p729
g5
(g582
g7
NtRp730
(dp731
g585
I0
sg11
F40
sg12
F60
sg586
I0
sg587
S''
sg588
I0
sg589
I200
sg33
S'68'
p732
sg591
I0
sg10
F20
sg13
g618
sg29
S'CSE'
p733
sg620
I0
sg31
S'273'
p734
sg622
I0
sg623
F40
sg624
I0
sg25
S'Mass=800\nThrust=40.0'
p735
sg28
I0
sg626
I0
sg627
I0
sg628
I0
sg35
S'Capital Starship Engines'
p736
sg630
F0
sg631
I0
sg27
F600
sg632
F800
sbsS'69'
p737
g5
(g582
g7
NtRp738
(dp739
g585
I0
sg11
F40
sg12
F60
sg586
I0
sg587
S''
sg588
I0
sg589
I200
sg33
S'69'
p740
sg591
I0
sg10
F20
sg13
g618
sg29
S'CRT'
p741
sg620
I0
sg31
S'273'
p742
sg622
I0
sg623
F0
sg624
I0
sg25
S'Mass=800\nRotation=150.0'
p743
sg28
I0
sg626
I0
sg627
I0
sg628
I0
sg35
S'Capital Rotation Thrusters'
p744
sg630
F150
sg631
I0
sg27
F300
sg632
F800
sbsS'52'
p745
g5
(g582
g7
NtRp746
(dp747
g585
I0
sg11
F2
sg12
F6
sg586
I0
sg587
S''
sg588
I0
sg589
I200
sg33
S'52'
p748
sg591
I20
sg10
F0
sg13
g618
sg29
S'MRGA'
p749
sg620
I0
sg31
S'246'
p750
sg622
I0
sg623
F0
sg624
I0
sg25
S'Mass=800\nMax Ammo=20'
p751
sg28
I0
sg626
I0
sg627
I0
sg628
I0
sg35
S'Medium Rail Gun Ammo'
p752
sg630
F0
sg631
I0
sg27
F60
sg632
F800
sbsS'53'
p753
g5
(g582
g7
NtRp754
(dp755
g585
I0
sg11
F2
sg12
F8
sg586
I0
sg587
S''
sg588
I0
sg589
I200
sg33
S'53'
p756
sg591
I16
sg10
F2
sg13
g618
sg29
S'HRGA'
p757
sg620
I0
sg31
S'260'
p758
sg622
I0
sg623
F0
sg624
I0
sg25
S'Mass=800\nMax Ammo=16'
p759
sg28
I0
sg626
I0
sg627
I0
sg628
I0
sg35
S'Heavy Rail Gun Ammo'
p760
sg630
F0
sg631
I0
sg27
F80
sg632
F800
sbsS'24'
p761
g5
(g582
g7
NtRp762
(dp763
g585
I0
sg11
F0
sg12
F30
sg586
I0
sg587
S''
sg588
I0
sg589
I200
sg33
S'24'
p764
sg591
I0
sg10
F12
sg13
g618
sg29
S'UMP'
p765
sg620
I0
sg31
S'221'
p766
sg622
I0
sg623
F0
sg624
I0
sg25
S'Mass=800\nMarine Assault=9'
p767
sg28
I0
sg626
I0
sg627
I0
sg628
I9
sg35
S'Ultra Marine Pods'
p768
sg630
F0
sg631
I0
sg27
F300
sg632
F800
sbsS'25'
p769
g5
(g582
g7
NtRp770
(dp771
g585
I0
sg11
F6
sg12
F4
sg586
I0
sg587
S''
sg588
I0
sg589
I50
sg33
S'25'
p772
sg591
I0
sg10
F0
sg13
g618
sg29
S'SSG'
p773
sg620
I100
sg31
S'66'
p774
sg622
I0
sg623
F0
sg624
I0
sg25
S'Mass=1000\nShield Generation=1\nShield Points=100'
p775
sg28
I0
sg626
I0
sg627
I1
sg628
I0
sg35
S'Simple Shield Generators'
p776
sg630
F0
sg631
I0
sg27
F100
sg632
F1000
sbsS'26'
p777
g5
(g582
g7
NtRp778
(dp779
g585
I0
sg11
F10
sg12
F8
sg586
I0
sg587
S''
sg588
I0
sg589
I100
sg33
S'26'
p780
sg591
I0
sg10
F0
sg13
g618
sg29
S'PSG'
p781
sg620
I200
sg31
S'166'
p782
sg622
I0
sg623
F0
sg624
I0
sg25
S'Mass=900\nShield Generation=2\nShield Points=200'
p783
sg28
I0
sg626
I0
sg627
I2
sg628
I0
sg35
S'Progressive Shield Generators'
p784
sg630
F0
sg631
I0
sg27
F200
sg632
F900
sbsS'27'
p785
g5
(g582
g7
NtRp786
(dp787
g585
I0
sg11
F20
sg12
F12
sg586
I0
sg587
S''
sg588
I0
sg589
I200
sg33
S'27'
p788
sg591
I0
sg10
F0
sg13
g618
sg29
S'USG'
p789
sg620
I300
sg31
S'266'
p790
sg622
I0
sg623
F0
sg624
I0
sg25
S'Mass=800\nShield Generation=3\nShield Points=300'
p791
sg28
I0
sg626
I0
sg627
I3
sg628
I0
sg35
S'Ultra Shield Generators'
p792
sg630
F0
sg631
I0
sg27
F300
sg632
F800
sbsS'20'
p793
g5
(g582
g7
NtRp794
(dp795
g585
I0
sg11
F8
sg12
F8
sg586
I0
sg587
S''
sg588
I2
sg589
I100
sg33
S'20'
p796
sg591
I0
sg10
F4
sg13
g618
sg29
S'PRX'
p797
sg620
I0
sg31
S'140'
p798
sg622
I0
sg623
F0
sg624
I0
sg25
S'Mass=900\nRadar=2'
p799
sg28
I0
sg626
I0
sg627
I0
sg628
I0
sg35
S'Progressive Radar Scanners'
p800
sg630
F0
sg631
I0
sg27
F200
sg632
F900
sbsS'21'
p801
g5
(g582
g7
NtRp802
(dp803
g585
I0
sg11
F12
sg12
F12
sg586
I0
sg587
S''
sg588
I3
sg589
I200
sg33
S'21'
p804
sg591
I0
sg10
F6
sg13
g618
sg29
S'URX'
p805
sg620
I0
sg31
S'240'
p806
sg622
I0
sg623
F0
sg624
I0
sg25
S'Mass=800\nRadar=3'
p807
sg28
I0
sg626
I0
sg627
I0
sg628
I0
sg35
S'Ultra Radar Scanners'
p808
sg630
F0
sg631
I0
sg27
F300
sg632
F800
sbsS'22'
p809
g5
(g582
g7
NtRp810
(dp811
g585
I0
sg11
F0
sg12
F10
sg586
I0
sg587
S''
sg588
I0
sg589
I50
sg33
S'22'
p812
sg591
I0
sg10
F4
sg13
g618
sg29
S'SMP'
p813
sg620
I0
sg31
S'21'
p814
sg622
I0
sg623
F0
sg624
I0
sg25
S'Mass=1000\nMarine Assault=3'
p815
sg28
I0
sg626
I0
sg627
I0
sg628
I3
sg35
S'Simple Marine Pods'
p816
sg630
F0
sg631
I0
sg27
F100
sg632
F1000
sbsS'23'
p817
g5
(g582
g7
NtRp818
(dp819
g585
I0
sg11
F0
sg12
F20
sg586
I0
sg587
S''
sg588
I0
sg589
I100
sg33
S'23'
p820
sg591
I0
sg10
F8
sg13
g618
sg29
S'PMP'
p821
sg620
I0
sg31
S'121'
p822
sg622
I0
sg623
F0
sg624
I0
sg25
S'Mass=900\nMarine Assault=6'
p823
sg28
I0
sg626
I0
sg627
I0
sg628
I6
sg35
S'Progressive Marine Pods'
p824
sg630
F0
sg631
I0
sg27
F200
sg632
F900
sbsS'46'
p825
g5
(g582
g7
NtRp826
(dp827
g585
I0
sg11
F0
sg12
F4
sg586
I0
sg587
S''
sg588
I0
sg589
I50
sg33
S'46'
p828
sg591
I100
sg10
F0
sg13
g618
sg29
S'AGGA'
p829
sg620
I0
sg31
S'68'
p830
sg622
I0
sg623
F0
sg624
I0
sg25
S'Mass=1000\nMax Ammo=100'
p831
sg28
I0
sg626
I0
sg627
I0
sg628
I0
sg35
S'AMS Graviton Gun Ammo'
p832
sg630
F0
sg631
I0
sg27
F50
sg632
F1000
sbsS'47'
p833
g5
(g582
g7
NtRp834
(dp835
g585
I0
sg11
F2
sg12
F4
sg586
I0
sg587
S''
sg588
I0
sg589
I100
sg33
S'47'
p836
sg591
I32
sg10
F0
sg13
g618
sg29
S'LACA'
p837
sg620
I0
sg31
S'132'
p838
sg622
I0
sg623
F0
sg624
I0
sg25
S'Mass=900\nMax Ammo=32'
p839
sg28
I0
sg626
I0
sg627
I0
sg628
I0
sg35
S'Light Auto Cannon Ammo'
p840
sg630
F0
sg631
I0
sg27
F40
sg632
F900
sbsS'44'
p841
g5
(g582
g7
NtRp842
(dp843
g585
I0
sg11
F2
sg12
F6
sg586
I0
sg587
S''
sg588
I0
sg589
I50
sg33
S'44'
p844
sg591
I20
sg10
F0
sg13
g618
sg29
S'MGGA'
p845
sg620
I0
sg31
S'46'
p846
sg622
I0
sg623
F0
sg624
I0
sg25
S'Mass=1000\nMax Ammo=20'
p847
sg28
I0
sg626
I0
sg627
I0
sg628
I0
sg35
S'Medium Graviton Gun Ammo'
p848
sg630
F0
sg631
I0
sg27
F60
sg632
F1000
sbsS'45'
p849
g5
(g582
g7
NtRp850
(dp851
g585
I0
sg11
F2
sg12
F8
sg586
I0
sg587
S''
sg588
I0
sg589
I50
sg33
S'45'
p852
sg591
I16
sg10
F2
sg13
g618
sg29
S'HGGA'
p853
sg620
I0
sg31
S'60'
p854
sg622
I0
sg623
F0
sg624
I0
sg25
S'Mass=1000\nMax Ammo=16'
p855
sg28
I0
sg626
I0
sg627
I0
sg628
I0
sg35
S'Heavy Graviton Gun Ammo'
p856
sg630
F0
sg631
I0
sg27
F80
sg632
F1000
sbsS'28'
p857
g5
(g582
g7
NtRp858
(dp859
g585
I0
sg11
F0
sg12
F10
sg586
I0
sg587
S'energy'
p860
sg588
I0
sg589
I50
sg33
S'28'
p861
sg591
I0
sg10
F0
sg13
g618
sg29
S'SRA'
p862
sg620
I0
sg31
S'65'
p863
sg622
I0
sg623
F0
sg624
I0
sg25
S'Mass=1000\nArmor Points=300\nArmor Type=energy'
p864
sg28
I0
sg626
I300
sg627
I0
sg628
I0
sg35
S'Simple Reflective Armor'
p865
sg630
F0
sg631
I0
sg27
F100
sg632
F1000
sbsS'29'
p866
g5
(g582
g7
NtRp867
(dp868
g585
I0
sg11
F0
sg12
F20
sg586
I0
sg587
S'energy'
p869
sg588
I0
sg589
I100
sg33
S'29'
p870
sg591
I0
sg10
F0
sg13
g618
sg29
S'PRA'
p871
sg620
I0
sg31
S'165'
p872
sg622
I0
sg623
F0
sg624
I0
sg25
S'Mass=900\nArmor Points=600\nArmor Type=energy'
p873
sg28
I0
sg626
I600
sg627
I0
sg628
I0
sg35
S'Progressive Reflective Armor'
p874
sg630
F0
sg631
I0
sg27
F200
sg632
F900
sbsS'40'
p875
g5
(g582
g7
NtRp876
(dp877
g585
I0
sg11
F2
sg12
F4
sg586
I0
sg587
S''
sg588
I0
sg589
I200
sg33
S'40'
p878
sg591
I48
sg10
F2
sg13
g618
sg29
S'LPTA'
p879
sg620
I0
sg31
S'235'
p880
sg622
I0
sg623
F0
sg624
I1
sg25
S'Mass=800\nMax Ammo=48'
p881
sg28
I0
sg626
I0
sg627
I0
sg628
I0
sg35
S'Light Plasma Torpedo Ammo'
p882
sg630
F0
sg631
I0
sg27
F40
sg632
F800
sbsS'41'
p883
g5
(g582
g7
NtRp884
(dp885
g585
I0
sg11
F2
sg12
F6
sg586
I0
sg587
S''
sg588
I0
sg589
I200
sg33
S'41'
p886
sg591
I36
sg10
F2
sg13
g618
sg29
S'MPTA'
p887
sg620
I0
sg31
S'249'
p888
sg622
I0
sg623
F0
sg624
I1
sg25
S'Mass=800\nMax Ammo=36'
p889
sg28
I0
sg626
I0
sg627
I0
sg628
I0
sg35
S'Medium Plasma Torpedo Ammo'
p890
sg630
F0
sg631
I0
sg27
F60
sg632
F800
sbsS'1'
g5
(g582
g7
NtRp891
(dp892
g585
I0
sg11
F4
sg12
F10
sg586
I0
sg587
S''
sg588
I0
sg589
I50
sg33
S'1'
sg591
I0
sg10
F0
sg13
g618
sg29
S'SSE'
p893
sg620
I0
sg31
S'37'
p894
sg622
I0
sg623
F10
sg624
I0
sg25
S'Mass=1000\nThrust=10.0'
p895
sg28
I0
sg626
I0
sg627
I0
sg628
I0
sg35
S'Simple StarShip Engines'
p896
sg630
F0
sg631
I0
sg27
F100
sg632
F1000
sbsS'3'
g5
(g582
g7
NtRp897
(dp898
g585
I0
sg11
F20
sg12
F30
sg586
I0
sg587
S''
sg588
I0
sg589
I200
sg33
S'3'
sg591
I0
sg10
F0
sg13
g618
sg29
S'USE'
p899
sg620
I0
sg31
S'237'
p900
sg622
I0
sg623
F20
sg624
I0
sg25
S'Mass=800\nThrust=20.0'
p901
sg28
I0
sg626
I0
sg627
I0
sg628
I0
sg35
S'Ultra StarShip Engines'
p902
sg630
F0
sg631
I0
sg27
F300
sg632
F800
sbsS'2'
g5
(g582
g7
NtRp903
(dp904
g585
I0
sg11
F10
sg12
F20
sg586
I0
sg587
S''
sg588
I0
sg589
I100
sg33
S'2'
sg591
I0
sg10
F0
sg13
g618
sg29
S'PSE'
p905
sg620
I0
sg31
S'137'
p906
sg622
I0
sg623
F16
sg624
I0
sg25
S'Mass=900\nThrust=16.0'
p907
sg28
I0
sg626
I0
sg627
I0
sg628
I0
sg35
S'Progressive StarShip Engines'
p908
sg630
F0
sg631
I0
sg27
F200
sg632
F900
sbsS'5'
g5
(g582
g7
NtRp909
(dp910
g585
I0
sg11
F10
sg12
F20
sg586
I0
sg587
S''
sg588
I0
sg589
I100
sg33
S'5'
sg591
I0
sg10
F0
sg13
g618
sg29
S'PRT'
p911
sg620
I0
sg31
S'138'
p912
sg622
I0
sg623
F0
sg624
I0
sg25
S'Mass=900\nRotation=45.0'
p913
sg28
I0
sg626
I0
sg627
I0
sg628
I0
sg35
S'Progressive Rotation Thrusters'
p914
sg630
F45
sg631
I0
sg27
F200
sg632
F900
sbsS'4'
g5
(g582
g7
NtRp915
(dp916
g585
I0
sg11
F4
sg12
F10
sg586
I0
sg587
S''
sg588
I0
sg589
I50
sg33
S'4'
sg591
I0
sg10
F0
sg13
g618
sg29
S'SRT'
p917
sg620
I0
sg31
S'38'
p918
sg622
I0
sg623
F0
sg624
I0
sg25
S'Mass=1000\nRotation=24.0'
p919
sg28
I0
sg626
I0
sg627
I0
sg628
I0
sg35
S'Simple Rotation Thrusters'
p920
sg630
F24
sg631
I0
sg27
F100
sg632
F1000
sbsS'7'
g5
(g582
g7
NtRp921
(dp922
g585
I0
sg11
F6
sg12
F10
sg586
I0
sg587
S''
sg588
I0
sg589
I50
sg33
S'7'
sg591
I0
sg10
F0
sg13
g618
sg29
S'SPP'
p923
sg620
I0
sg31
S'39'
p924
sg622
I0
sg623
F0
sg624
I50
sg25
S'Mass=1000\nPower Generation=50'
p925
sg28
I50
sg626
I0
sg627
I0
sg628
I0
sg35
S'Simple Power Plant'
p926
sg630
F0
sg631
I0
sg27
F100
sg632
F1000
sbsS'6'
g5
(g582
g7
NtRp927
(dp928
g585
I0
sg11
F20
sg12
F30
sg586
I0
sg587
S''
sg588
I0
sg589
I200
sg33
S'6'
sg591
I0
sg10
F0
sg13
g618
sg29
S'URT'
p929
sg620
I0
sg31
S'238'
p930
sg622
I0
sg623
F0
sg624
I0
sg25
S'Mass=800\nRotation=75.0'
p931
sg28
I0
sg626
I0
sg627
I0
sg628
I0
sg35
S'Ultra Rotation Thrusters'
p932
sg630
F75
sg631
I0
sg27
F300
sg632
F800
sbsS'9'
g5
(g582
g7
NtRp933
(dp934
g585
I0
sg11
F20
sg12
F30
sg586
I0
sg587
S''
sg588
I0
sg589
I200
sg33
S'9'
sg591
I0
sg10
F0
sg13
g618
sg29
S'UPP'
p935
sg620
I0
sg31
S'239'
p936
sg622
I0
sg623
F0
sg624
I200
sg25
S'Mass=800\nPower Generation=200'
p937
sg28
I200
sg626
I0
sg627
I0
sg628
I0
sg35
S'Ultra Power Plant'
p938
sg630
F0
sg631
I0
sg27
F300
sg632
F800
sbsS'8'
g5
(g582
g7
NtRp939
(dp940
g585
I0
sg11
F10
sg12
F20
sg586
I0
sg587
S''
sg588
I0
sg589
I100
sg33
S'8'
sg591
I0
sg10
F0
sg13
g618
sg29
S'PPP'
p941
sg620
I0
sg31
S'139'
p942
sg622
I0
sg623
F0
sg624
I100
sg25
S'Mass=900\nPower Generation=100'
p943
sg28
I100
sg626
I0
sg627
I0
sg628
I0
sg35
S'Progressive Power Plant'
p944
sg630
F0
sg631
I0
sg27
F200
sg632
F900
sbsS'51'
p945
g5
(g582
g7
NtRp946
(dp947
g585
I0
sg11
F2
sg12
F4
sg586
I0
sg587
S''
sg588
I0
sg589
I200
sg33
S'51'
p948
sg591
I32
sg10
F0
sg13
g618
sg29
S'LRGA'
p949
sg620
I0
sg31
S'232'
p950
sg622
I0
sg623
F0
sg624
I0
sg25
S'Mass=800\nMax Ammo=32'
p951
sg28
I0
sg626
I0
sg627
I0
sg628
I0
sg35
S'Light Rail Gun Ammo'
p952
sg630
F0
sg631
I0
sg27
F40
sg632
F800
sbsS'39'
p953
g5
(g582
g7
NtRp954
(dp955
g585
I0
sg11
F2
sg12
F8
sg586
I0
sg587
S''
sg588
I0
sg589
I100
sg33
S'39'
p956
sg591
I24
sg10
F2
sg13
g618
sg29
S'HFTA'
p957
sg620
I0
sg31
S'163'
p958
sg622
I0
sg623
F0
sg624
I1
sg25
S'Mass=900\nMax Ammo=24'
p959
sg28
I0
sg626
I0
sg627
I0
sg628
I0
sg35
S'Heavy Fusion Torpedo Ammo'
p960
sg630
F0
sg631
I0
sg27
F80
sg632
F900
sbsS'65'
p961
g5
(g582
g7
NtRp962
(dp963
g585
I0
sg11
F4
sg12
F10
sg586
I0
sg587
S''
sg588
I0
sg589
I50
sg33
S'65'
p964
sg591
I0
sg10
F8
sg13
g618
sg29
S'SJD'
p965
sg620
I0
sg31
S'72'
p966
sg622
I4
sg623
F0
sg624
I0
sg25
S'Mass=1000\nJamming=4'
p967
sg28
I0
sg626
I0
sg627
I0
sg628
I0
sg35
S'Simple Jamming Dishes'
p968
sg630
F0
sg631
I0
sg27
F200
sg632
F1000
sbsS'38'
p969
g5
(g582
g7
NtRp970
(dp971
g585
I0
sg11
F2
sg12
F6
sg586
I0
sg587
S''
sg588
I0
sg589
I100
sg33
S'38'
p972
sg591
I36
sg10
F2
sg13
g618
sg29
S'MFTA'
p973
sg620
I0
sg31
S'149'
p974
sg622
I0
sg623
F0
sg624
I1
sg25
S'Mass=900\nMax Ammo=36'
p975
sg28
I0
sg626
I0
sg627
I0
sg628
I0
sg35
S'Medium Fusion Torpedo Ammo'
p976
sg630
F0
sg631
I0
sg27
F60
sg632
F900
sbsS'59'
p977
g5
(g582
g7
NtRp978
(dp979
g585
I0
sg11
F2
sg12
F6
sg586
I0
sg587
S''
sg588
I0
sg589
I100
sg33
S'59'
p980
sg591
I36
sg10
F2
sg13
g618
sg29
S'MFMA'
p981
sg620
I0
sg31
S'147'
p982
sg622
I0
sg623
F0
sg624
I1
sg25
S'Mass=900\nMax Ammo=36'
p983
sg28
I0
sg626
I0
sg627
I0
sg628
I0
sg35
S'Medium Fusion Missile Ammo'
p984
sg630
F0
sg631
I0
sg27
F60
sg632
F900
sbsS'58'
p985
g5
(g582
g7
NtRp986
(dp987
g585
I0
sg11
F2
sg12
F4
sg586
I0
sg587
S''
sg588
I0
sg589
I100
sg33
S'58'
p988
sg591
I48
sg10
F2
sg13
g618
sg29
S'LFMA'
p989
sg620
I0
sg31
S'133'
p990
sg622
I0
sg623
F0
sg624
I1
sg25
S'Mass=900\nMax Ammo=48'
p991
sg28
I0
sg626
I0
sg627
I0
sg628
I0
sg35
S'Light Fusion Missile Ammo'
p992
sg630
F0
sg631
I0
sg27
F40
sg632
F900
sbsS'11'
p993
g5
(g582
g7
NtRp994
(dp995
g585
I0
sg11
F10
sg12
F20
sg586
I700
sg587
S''
sg588
I0
sg589
I100
sg33
S'11'
p996
sg591
I0
sg10
F0
sg13
g618
sg29
S'PEB'
p997
sg620
I0
sg31
S'153'
p998
sg622
I0
sg623
F0
sg624
I0
sg25
S'Mass=900\nBattery Power=700'
p999
sg28
I0
sg626
I0
sg627
I0
sg628
I0
sg35
S'Progressive Energy Batteries'
p1000
sg630
F0
sg631
I0
sg27
F200
sg632
F900
sbsS'10'
p1001
g5
(g582
g7
NtRp1002
(dp1003
g585
I0
sg11
F6
sg12
F10
sg586
I350
sg587
S''
sg588
I0
sg589
I50
sg33
S'10'
p1004
sg591
I0
sg10
F0
sg13
g618
sg29
S'SEB'
p1005
sg620
I0
sg31
S'53'
p1006
sg622
I0
sg623
F0
sg624
I0
sg25
S'Mass=1000\nBattery Power=350'
p1007
sg28
I0
sg626
I0
sg627
I0
sg628
I0
sg35
S'Simple Energy Batteries'
p1008
sg630
F0
sg631
I0
sg27
F100
sg632
F1000
sbsS'13'
p1009
g5
(g582
g7
NtRp1010
(dp1011
g585
I2
sg11
F6
sg12
F10
sg586
I0
sg587
S''
sg588
I0
sg589
I50
sg33
S'13'
p1012
sg591
I0
sg10
F4
sg13
g618
sg29
S'SES'
p1013
sg620
I0
sg31
S'52'
p1014
sg622
I0
sg623
F0
sg624
I0
sg25
S'Mass=1000\nShip Construction=2'
p1015
sg28
I0
sg626
I0
sg627
I0
sg628
I0
sg35
S'Simple Engineering Stations'
p1016
sg630
F0
sg631
I0
sg27
F100
sg632
F1000
sbsS'12'
p1017
g5
(g582
g7
NtRp1018
(dp1019
g585
I0
sg11
F20
sg12
F30
sg586
I1400
sg587
S''
sg588
I0
sg589
I200
sg33
S'12'
p1020
sg591
I0
sg10
F0
sg13
g618
sg29
S'UEB'
p1021
sg620
I0
sg31
S'253'
p1022
sg622
I0
sg623
F0
sg624
I0
sg25
S'Mass=800\nBattery Power=1400'
p1023
sg28
I0
sg626
I0
sg627
I0
sg628
I0
sg35
S'Ultra Energy Batteries'
p1024
sg630
F0
sg631
I0
sg27
F300
sg632
F800
sbsS'15'
p1025
g5
(g582
g7
NtRp1026
(dp1027
g585
I8
sg11
F18
sg12
F30
sg586
I0
sg587
S''
sg588
I0
sg589
I200
sg33
S'15'
p1028
sg591
I0
sg10
F12
sg13
g618
sg29
S'UES'
p1029
sg620
I0
sg31
S'252'
p1030
sg622
I0
sg623
F0
sg624
I0
sg25
S'Mass=800\nShip Construction=8'
p1031
sg28
I0
sg626
I0
sg627
I0
sg628
I0
sg35
S'Ultra Engineering Stations'
p1032
sg630
F0
sg631
I0
sg27
F300
sg632
F800
sbsS'14'
p1033
g5
(g582
g7
NtRp1034
(dp1035
g585
I4
sg11
F12
sg12
F20
sg586
I0
sg587
S''
sg588
I0
sg589
I100
sg33
S'14'
p1036
sg591
I0
sg10
F8
sg13
g618
sg29
S'PES'
p1037
sg620
I0
sg31
S'153'
p1038
sg622
I0
sg623
F0
sg624
I0
sg25
S'Mass=900\nShip Construction=4'
p1039
sg28
I0
sg626
I0
sg627
I0
sg628
I0
sg35
S'Progressive Engineering Stations'
p1040
sg630
F0
sg631
I0
sg27
F200
sg632
F900
sbsS'17'
p1041
g5
(g582
g7
NtRp1042
(dp1043
g585
I0
sg11
F8
sg12
F8
sg586
I0
sg587
S''
sg588
I0
sg589
I100
sg33
S'17'
p1044
sg591
I0
sg10
F40
sg13
g618
sg29
S'PTC'
p1045
sg620
I0
sg31
S'167'
p1046
sg622
I0
sg623
F0
sg624
I0
sg25
S'Mass=900\nTargetting=10'
p1047
sg28
I0
sg626
I0
sg627
I0
sg628
I0
sg35
S'Progressive Targeting Computers'
p1048
sg630
F0
sg631
I10
sg27
F600
sg632
F900
sbsS'16'
p1049
g5
(g582
g7
NtRp1050
(dp1051
g585
I0
sg11
F4
sg12
F4
sg586
I0
sg587
S''
sg588
I0
sg589
I50
sg33
S'16'
p1052
sg591
I0
sg10
F20
sg13
g618
sg29
S'STC'
p1053
sg620
I0
sg31
S'67'
p1054
sg622
I0
sg623
F0
sg624
I0
sg25
S'Mass=1000\nTargetting=5'
p1055
sg28
I0
sg626
I0
sg627
I0
sg628
I0
sg35
S'Simple Targeting Computers'
p1056
sg630
F0
sg631
I5
sg27
F300
sg632
F1000
sbsS'19'
p1057
g5
(g582
g7
NtRp1058
(dp1059
g585
I0
sg11
F4
sg12
F4
sg586
I0
sg587
S''
sg588
I1
sg589
I50
sg33
S'19'
p1060
sg591
I0
sg10
F2
sg13
g618
sg29
S'SRX'
p1061
sg620
I0
sg31
S'40'
p1062
sg622
I0
sg623
F0
sg624
I0
sg25
S'Mass=1000\nRadar=1'
p1063
sg28
I0
sg626
I0
sg627
I0
sg628
I0
sg35
S'Simple Radar Scanners'
p1064
sg630
F0
sg631
I0
sg27
F100
sg632
F1000
sbsS'18'
p1065
g5
(g582
g7
NtRp1066
(dp1067
g585
I0
sg11
F12
sg12
F12
sg586
I0
sg587
S''
sg588
I0
sg589
I200
sg33
S'18'
p1068
sg591
I0
sg10
F60
sg13
g618
sg29
S'UTC'
p1069
sg620
I0
sg31
S'267'
p1070
sg622
I0
sg623
F0
sg624
I0
sg25
S'Mass=800\nTargetting=15'
p1071
sg28
I0
sg626
I0
sg627
I0
sg628
I0
sg35
S'Ultra Targeting Computers'
p1072
sg630
F0
sg631
I15
sg27
F900
sg632
F800
sbsS'31'
p1073
g5
(g582
g7
NtRp1074
(dp1075
g585
I0
sg11
F0
sg12
F10
sg586
I0
sg587
S'impact'
p1076
sg588
I0
sg589
I50
sg33
S'31'
p1077
sg591
I0
sg10
F0
sg13
g618
sg29
S'SIA'
p1078
sg620
I0
sg31
S'64'
p1079
sg622
I0
sg623
F0
sg624
I0
sg25
S'Mass=1000\nArmor Points=300\nArmor Type=impact'
p1080
sg28
I0
sg626
I300
sg627
I0
sg628
I0
sg35
S'Simple Impact Armor'
p1081
sg630
F0
sg631
I0
sg27
F100
sg632
F1000
sbsS'30'
p1082
g5
(g582
g7
NtRp1083
(dp1084
g585
I0
sg11
F0
sg12
F30
sg586
I0
sg587
S'energy'
p1085
sg588
I0
sg589
I200
sg33
S'30'
p1086
sg591
I0
sg10
F0
sg13
g618
sg29
S'URA'
p1087
sg620
I0
sg31
S'265'
p1088
sg622
I0
sg623
F0
sg624
I0
sg25
S'Mass=800\nArmor Points=900\nArmor Type=energy'
p1089
sg28
I0
sg626
I900
sg627
I0
sg628
I0
sg35
S'Ultra Reflective Armor'
p1090
sg630
F0
sg631
I0
sg27
F300
sg632
F800
sbsS'37'
p1091
g5
(g582
g7
NtRp1092
(dp1093
g585
I0
sg11
F2
sg12
F4
sg586
I0
sg587
S''
sg588
I0
sg589
I100
sg33
S'37'
p1094
sg591
I48
sg10
F2
sg13
g618
sg29
S'LFTA'
p1095
sg620
I0
sg31
S'135'
p1096
sg622
I0
sg623
F0
sg624
I1
sg25
S'Mass=900\nMax Ammo=48'
p1097
sg28
I0
sg626
I0
sg627
I0
sg628
I0
sg35
S'Light Fusion Torpedo Ammo'
p1098
sg630
F0
sg631
I0
sg27
F40
sg632
F900
sbsS'36'
p1099
g5
(g582
g7
NtRp1100
(dp1101
g585
I0
sg11
F2
sg12
F8
sg586
I0
sg587
S''
sg588
I0
sg589
I50
sg33
S'36'
p1102
sg591
I24
sg10
F2
sg13
g618
sg29
S'HNTA'
p1103
sg620
I0
sg31
S'63'
p1104
sg622
I0
sg623
F0
sg624
I1
sg25
S'Mass=1000\nMax Ammo=24'
p1105
sg28
I0
sg626
I0
sg627
I0
sg628
I0
sg35
S'Heavy Nuclear Torpedo Ammo'
p1106
sg630
F0
sg631
I0
sg27
F80
sg632
F1000
sbsS'35'
p1107
g5
(g582
g7
NtRp1108
(dp1109
g585
I0
sg11
F2
sg12
F6
sg586
I0
sg587
S''
sg588
I0
sg589
I50
sg33
S'35'
p1110
sg591
I36
sg10
F2
sg13
g618
sg29
S'MNTA'
p1111
sg620
I0
sg31
S'49'
p1112
sg622
I0
sg623
F0
sg624
I1
sg25
S'Mass=1000\nMax Ammo=36'
p1113
sg28
I0
sg626
I0
sg627
I0
sg628
I0
sg35
S'Medium Nuclear Torpedo Ammo'
p1114
sg630
F0
sg631
I0
sg27
F60
sg632
F1000
sbsS'34'
p1115
g5
(g582
g7
NtRp1116
(dp1117
g585
I0
sg11
F2
sg12
F4
sg586
I0
sg587
S''
sg588
I0
sg589
I50
sg33
S'34'
p1118
sg591
I48
sg10
F2
sg13
g618
sg29
S'LNTA'
p1119
sg620
I0
sg31
S'35'
p1120
sg622
I0
sg623
F0
sg624
I1
sg25
S'Mass=1000\nMax Ammo=48'
p1121
sg28
I0
sg626
I0
sg627
I0
sg628
I0
sg35
S'Light Nuclear Torpedo Ammo'
p1122
sg630
F0
sg631
I0
sg27
F40
sg632
F1000
sbsS'33'
p1123
g5
(g582
g7
NtRp1124
(dp1125
g585
I0
sg11
F0
sg12
F30
sg586
I0
sg587
S'impact'
p1126
sg588
I0
sg589
I200
sg33
S'33'
p1127
sg591
I0
sg10
F0
sg13
g618
sg29
S'UIA'
p1128
sg620
I0
sg31
S'264'
p1129
sg622
I0
sg623
F0
sg624
I0
sg25
S'Mass=800\nArmor Points=900\nArmor Type=impact'
p1130
sg28
I0
sg626
I900
sg627
I0
sg628
I0
sg35
S'Ultra Impact Armor'
p1131
sg630
F0
sg631
I0
sg27
F300
sg632
F800
sbsS'55'
p1132
g5
(g582
g7
NtRp1133
(dp1134
g585
I0
sg11
F2
sg12
F4
sg586
I0
sg587
S''
sg588
I0
sg589
I50
sg33
S'55'
p1135
sg591
I48
sg10
F2
sg13
g618
sg29
S'LNMA'
p1136
sg620
I0
sg31
S'33'
p1137
sg622
I0
sg623
F0
sg624
I1
sg25
S'Mass=1000\nMax Ammo=48'
p1138
sg28
I0
sg626
I0
sg627
I0
sg628
I0
sg35
S'Light Nuclear Missile Ammo'
p1139
sg630
F0
sg631
I0
sg27
F40
sg632
F1000
sbsS'32'
p1140
g5
(g582
g7
NtRp1141
(dp1142
g585
I0
sg11
F0
sg12
F20
sg586
I0
sg587
S'impact'
p1143
sg588
I0
sg589
I100
sg33
S'32'
p1144
sg591
I0
sg10
F0
sg13
g618
sg29
S'PIA'
p1145
sg620
I0
sg31
S'164'
p1146
sg622
I0
sg623
F0
sg624
I0
sg25
S'Mass=900\nArmor Points=600\nArmor Type=impact'
p1147
sg28
I0
sg626
I600
sg627
I0
sg628
I0
sg35
S'Progressive Impact Armor'
p1148
sg630
F0
sg631
I0
sg27
F200
sg632
F900
sbsS'57'
p1149
g5
(g582
g7
NtRp1150
(dp1151
g585
I0
sg11
F2
sg12
F8
sg586
I0
sg587
S''
sg588
I0
sg589
I50
sg33
S'57'
p1152
sg591
I24
sg10
F2
sg13
g618
sg29
S'HNMA'
p1153
sg620
I0
sg31
S'61'
p1154
sg622
I0
sg623
F0
sg624
I1
sg25
S'Mass=1000\nMax Ammo=24'
p1155
sg28
I0
sg626
I0
sg627
I0
sg628
I0
sg35
S'Heavy Nuclear Missile Ammo'
p1156
sg630
F0
sg631
I0
sg27
F80
sg632
F1000
sbsS'50'
p1157
g5
(g582
g7
NtRp1158
(dp1159
g585
I0
sg11
F0
sg12
F4
sg586
I0
sg587
S''
sg588
I0
sg589
I100
sg33
S'50'
p1160
sg591
I100
sg10
F0
sg13
g618
sg29
S'AACA'
p1161
sg620
I0
sg31
S'168'
p1162
sg622
I0
sg623
F0
sg624
I0
sg25
S'Mass=900\nMax Ammo=100'
p1163
sg28
I0
sg626
I0
sg627
I0
sg628
I0
sg35
S'AMS Auto Cannon Ammo'
p1164
sg630
F0
sg631
I0
sg27
F50
sg632
F900
sbssS'weapondata'
p1165
(dp1166
S'42'
p1167
g5
(canw.war.weapondata
WeaponData
p1168
g7
NtRp1169
(dp1170
g11
F48
sg12
F0
sS'direct'
p1171
S''
sS'arc'
p1172
I10
sS'maxLock'
p1173
F3
sS'speed'
p1174
I10
sS'maxPower'
p1175
F1025
sg31
S'261'
p1176
sg10
F12
sS'ammoHP'
p1177
I200
sg13
(S'id'
p1178
S'name'
p1179
S'abr'
p1180
S'costCR'
p1181
S'costAL'
p1182
S'costEC'
p1183
S'costIA'
p1184
S'techReq'
p1185
S'description'
p1186
S'range'
p1187
S'arc'
p1188
S'damage'
p1189
S'speed'
p1190
S'tracking'
p1191
S'maxLock'
p1192
S'ammo'
p1193
S'maxPower'
p1194
S'ammoHP'
p1195
S'maxCompHP'
p1196
S'numComps'
p1197
S'AMS'
p1198
S'missile'
p1199
S'direct'
p1200
tp1201
sS'damage'
p1202
F800
sg33
S'42'
p1203
sg29
S'HPM'
p1204
sS'AMS'
p1205
I0
sg25
S'Range=80.0\nArc (Degrees)=10\nDamage=800.0\nPower Req=1025.0\nLock Time=3.0\nComponents Req=8\nMissile Type=impact\nSpeed=10\nTracking (sec)=8.0\nRequires Ammo=yes'
p1206
sS'missile'
p1207
S'impact'
p1208
sS'tracking'
p1209
F8
sg35
S'Heavy Plasma Missile'
p1210
sS'maxCompHP'
p1211
I200
sS'numComps'
p1212
I8
sg27
F480
sS'range'
p1213
F80
sS'ammo'
p1214
I1
sbsS'48'
p1215
g5
(g1168
g7
NtRp1216
(dp1217
g11
F0
sg12
F100
sg1171
S''
sg1172
I360
sg1173
F7
sg1174
I0
sg1175
F3500
sg31
S'159'
p1218
sg10
F56
sg1177
I0
sg13
g1201
sg1202
F0
sg33
S'48'
p1219
sg29
S'HFL'
p1220
sg1205
I0
sg25
S'Range=224.0\nArc (Degrees)=360\nPower Req=3500.0\nLock Time=7.0\nComponents Req=12'
p1221
sg1207
S''
sg1209
F0
sg35
S'Heavy Fusion Launcher'
p1222
sg1211
I100
sg1212
I12
sg27
F280
sg1213
F224
sg1214
I0
sbsS'43'
p1223
g5
(g1168
g7
NtRp1224
(dp1225
g11
F0
sg12
F100
sg1171
S''
sg1172
I360
sg1173
F4
sg1174
I0
sg1175
F2000
sg31
S'31'
p1226
sg10
F32
sg1177
I0
sg13
g1201
sg1202
F0
sg33
S'43'
p1227
sg29
S'LNL'
p1228
sg1205
I0
sg25
S'Range=128.0\nArc (Degrees)=360\nPower Req=2000.0\nLock Time=4.0\nComponents Req=8'
p1229
sg1207
S''
sg1209
F0
sg35
S'Light Nuclear Launcher'
p1230
sg1211
I50
sg1212
I8
sg27
F160
sg1213
F128
sg1214
I0
sbsS'49'
p1231
g5
(g1168
g7
NtRp1232
(dp1233
g11
F0
sg12
F100
sg1171
S''
sg1172
I360
sg1173
F6
sg1174
I0
sg1175
F3000
sg31
S'231'
p1234
sg10
F48
sg1177
I0
sg13
g1201
sg1202
F0
sg33
S'49'
p1235
sg29
S'LPL'
p1236
sg1205
I0
sg25
S'Range=192.0\nArc (Degrees)=360\nPower Req=3000.0\nLock Time=6.0\nComponents Req=8'
p1237
sg1207
S''
sg1209
F0
sg35
S'Light Plasma Launcher'
p1238
sg1211
I200
sg1212
I8
sg27
F240
sg1213
F192
sg1214
I0
sbsS'24'
p1239
g5
(g1168
g7
NtRp1240
(dp1241
g11
F16
sg12
F0
sg1171
S'impact'
p1242
sg1172
I10
sg1173
F3
sg1174
I0
sg1175
F400
sg31
S'60'
p1243
sg10
F4
sg1177
I0
sg13
g1201
sg1202
F300
sg33
S'24'
p1244
sg29
S'HGG'
p1245
sg1205
I0
sg25
S'Range=24.0\nArc (Degrees)=10\nDamage=300.0\nPower Req=400.0\nLock Time=3.0\nComponents Req=8\nDirect Type=impact\nRequires Ammo=yes'
p1246
sg1207
S''
sg1209
F0
sg35
S'Heavy Graviton Gun'
p1247
sg1211
I50
sg1212
I8
sg27
F160
sg1213
F24
sg1214
I1
sbsS'25'
p1248
g5
(g1168
g7
NtRp1249
(dp1250
g11
F8
sg12
F0
sg1171
S'impact'
p1251
sg1172
I360
sg1173
F0.29999999999999999
sg1174
I0
sg1175
F100
sg31
S'68'
p1252
sg10
F2
sg1177
I0
sg13
g1201
sg1202
F75
sg33
S'25'
p1253
sg29
S'AGG'
p1254
sg1205
I1
sg25
S'Range=8.0\nArc (Degrees)=360\nDamage=75.0\nPower Req=100.0\nLock Time=0.3\nComponents Req=4\nDirect Type=impact\nAnti-Missle=yes\nRequires Ammo=yes'
p1255
sg1207
S''
sg1209
F0
sg35
S'AMS Graviton Gun'
p1256
sg1211
I50
sg1212
I4
sg27
F60
sg1213
F8
sg1214
I1
sbsS'26'
p1257
g5
(g1168
g7
NtRp1258
(dp1259
g11
F16
sg12
F0
sg1171
S'impact'
p1260
sg1172
I10
sg1173
F2
sg1174
I0
sg1175
F300
sg31
S'132'
p1261
sg10
F4
sg1177
I0
sg13
g1201
sg1202
F300
sg33
S'26'
p1262
sg29
S'LAC'
p1263
sg1205
I0
sg25
S'Range=12.0\nArc (Degrees)=10\nDamage=300.0\nPower Req=300.0\nLock Time=2.0\nComponents Req=4\nDirect Type=impact\nRequires Ammo=yes'
p1264
sg1207
S''
sg1209
F0
sg35
S'Light Auto Cannon'
p1265
sg1211
I100
sg1212
I4
sg27
F160
sg1213
F12
sg1214
I1
sbsS'27'
p1266
g5
(g1168
g7
NtRp1267
(dp1268
g11
F24
sg12
F0
sg1171
S'impact'
p1269
sg1172
I10
sg1173
F2.5
sg1174
I0
sg1175
F450
sg31
S'146'
p1270
sg10
F6
sg1177
I0
sg13
g1201
sg1202
F450
sg33
S'27'
p1271
sg29
S'MAC'
p1272
sg1205
I0
sg25
S'Range=24.0\nArc (Degrees)=10\nDamage=450.0\nPower Req=450.0\nLock Time=2.5\nComponents Req=6\nDirect Type=impact\nRequires Ammo=yes'
p1273
sg1207
S''
sg1209
F0
sg35
S'Medium Auto Cannon'
p1274
sg1211
I100
sg1212
I6
sg27
F240
sg1213
F24
sg1214
I1
sbsS'20'
p1275
g5
(g1168
g7
NtRp1276
(dp1277
g11
F36
sg12
F0
sg1171
S''
sg1172
I10
sg1173
F2.5
sg1174
I10
sg1175
F370
sg31
S'249'
p1278
sg10
F6
sg1177
I200
sg13
g1201
sg1202
F600
sg33
S'20'
p1279
sg29
S'MPT'
p1280
sg1205
I0
sg25
S'Range=64.0\nArc (Degrees)=10\nDamage=600.0\nPower Req=370.0\nLock Time=2.5\nComponents Req=6\nMissile Type=energy\nSpeed=10\nTracking (sec)=8.0\nRequires Ammo=yes'
p1281
sg1207
S'energy'
p1282
sg1209
F8
sg35
S'Medium Plasma Torpedo'
p1283
sg1211
I200
sg1212
I6
sg27
F360
sg1213
F64
sg1214
I1
sbsS'21'
p1284
g5
(g1168
g7
NtRp1285
(dp1286
g11
F48
sg12
F0
sg1171
S''
sg1172
I10
sg1173
F3
sg1174
I10
sg1175
F510
sg31
S'263'
p1287
sg10
F12
sg1177
I200
sg13
g1201
sg1202
F800
sg33
S'21'
p1288
sg29
S'HPT'
p1289
sg1205
I0
sg25
S'Range=80.0\nArc (Degrees)=10\nDamage=800.0\nPower Req=510.0\nLock Time=3.0\nComponents Req=8\nMissile Type=energy\nSpeed=10\nTracking (sec)=8.0\nRequires Ammo=yes'
p1290
sg1207
S'energy'
p1291
sg1209
F8
sg35
S'Heavy Plasma Torpedo'
p1292
sg1211
I200
sg1212
I8
sg27
F480
sg1213
F80
sg1214
I1
sbsS'22'
p1293
g5
(g1168
g7
NtRp1294
(dp1295
g11
F8
sg12
F0
sg1171
S'impact'
p1296
sg1172
I10
sg1173
F2
sg1174
I0
sg1175
F200
sg31
S'32'
p1297
sg10
F2
sg1177
I0
sg13
g1201
sg1202
F150
sg33
S'22'
p1298
sg29
S'LGG'
p1299
sg1205
I0
sg25
S'Range=8.0\nArc (Degrees)=10\nDamage=150.0\nPower Req=200.0\nLock Time=2.0\nComponents Req=4\nDirect Type=impact\nRequires Ammo=yes'
p1300
sg1207
S''
sg1209
F0
sg35
S'Light Graviton Gun'
p1301
sg1211
I50
sg1212
I4
sg27
F80
sg1213
F8
sg1214
I1
sbsS'23'
p1302
g5
(g1168
g7
NtRp1303
(dp1304
g11
F12
sg12
F0
sg1171
S'impact'
p1305
sg1172
I10
sg1173
F2.5
sg1174
I0
sg1175
F300
sg31
S'46'
p1306
sg10
F2
sg1177
I0
sg13
g1201
sg1202
F225
sg33
S'23'
p1307
sg29
S'MGG'
p1308
sg1205
I0
sg25
S'Range=16.0\nArc (Degrees)=10\nDamage=225.0\nPower Req=300.0\nLock Time=2.5\nComponents Req=6\nDirect Type=impact\nRequires Ammo=yes'
p1309
sg1207
S''
sg1209
F0
sg35
S'Medium Graviton Gun'
p1310
sg1211
I50
sg1212
I6
sg27
F120
sg1213
F16
sg1214
I1
sbsS'46'
p1311
g5
(g1168
g7
NtRp1312
(dp1313
g11
F0
sg12
F100
sg1171
S''
sg1172
I360
sg1173
F5
sg1174
I0
sg1175
F2500
sg31
S'131'
p1314
sg10
F40
sg1177
I0
sg13
g1201
sg1202
F0
sg33
S'46'
p1315
sg29
S'LFL'
p1316
sg1205
I0
sg25
S'Range=160.0\nArc (Degrees)=360\nPower Req=2500.0\nLock Time=5.0\nComponents Req=8'
p1317
sg1207
S''
sg1209
F0
sg35
S'Light Fusion Launcher'
p1318
sg1211
I100
sg1212
I8
sg27
F200
sg1213
F160
sg1214
I0
sbsS'47'
p1319
g5
(g1168
g7
NtRp1320
(dp1321
g11
F0
sg12
F100
sg1171
S''
sg1172
I360
sg1173
F6
sg1174
I0
sg1175
F3000
sg31
S'145'
p1322
sg10
F48
sg1177
I0
sg13
g1201
sg1202
F0
sg33
S'47'
p1323
sg29
S'MFL'
p1324
sg1205
I0
sg25
S'Range=192.0\nArc (Degrees)=360\nPower Req=3000.0\nLock Time=6.0\nComponents Req=10'
p1325
sg1207
S''
sg1209
F0
sg35
S'Medium Fusion Launcher'
p1326
sg1211
I100
sg1212
I10
sg27
F240
sg1213
F192
sg1214
I0
sbsS'44'
p1327
g5
(g1168
g7
NtRp1328
(dp1329
g11
F0
sg12
F100
sg1171
S''
sg1172
I360
sg1173
F5
sg1174
I0
sg1175
F2500
sg31
S'45'
p1330
sg10
F40
sg1177
I0
sg13
g1201
sg1202
F0
sg33
S'44'
p1331
sg29
S'MNL'
p1332
sg1205
I0
sg25
S'Range=160.0\nArc (Degrees)=360\nPower Req=2500.0\nLock Time=5.0\nComponents Req=10'
p1333
sg1207
S''
sg1209
F0
sg35
S'Medium Nuclear Launcher'
p1334
sg1211
I50
sg1212
I10
sg27
F200
sg1213
F160
sg1214
I0
sbsS'45'
p1335
g5
(g1168
g7
NtRp1336
(dp1337
g11
F0
sg12
F100
sg1171
S''
sg1172
I360
sg1173
F6
sg1174
I0
sg1175
F3000
sg31
S'59'
p1338
sg10
F48
sg1177
I0
sg13
g1201
sg1202
F0
sg33
S'45'
p1339
sg29
S'HNL'
p1340
sg1205
I0
sg25
S'Range=192.0\nArc (Degrees)=360\nPower Req=3000.0\nLock Time=6.0\nComponents Req=12'
p1341
sg1207
S''
sg1209
F0
sg35
S'Heavy Nuclear Launcher'
p1342
sg1211
I50
sg1212
I12
sg27
F240
sg1213
F192
sg1214
I0
sbsS'28'
p1343
g5
(g1168
g7
NtRp1344
(dp1345
g11
F32
sg12
F0
sg1171
S'impact'
p1346
sg1172
I10
sg1173
F3
sg1174
I0
sg1175
F600
sg31
S'160'
p1347
sg10
F8
sg1177
I0
sg13
g1201
sg1202
F600
sg33
S'28'
p1348
sg29
S'HAC'
p1349
sg1205
I0
sg25
S'Range=36.0\nArc (Degrees)=10\nDamage=600.0\nPower Req=600.0\nLock Time=3.0\nComponents Req=8\nDirect Type=impact\nRequires Ammo=yes'
p1350
sg1207
S''
sg1209
F0
sg35
S'Heavy Auto Cannon'
p1351
sg1211
I100
sg1212
I8
sg27
F320
sg1213
F36
sg1214
I1
sbsS'29'
p1352
g5
(g1168
g7
NtRp1353
(dp1354
g11
F12
sg12
F0
sg1171
S'impact'
p1355
sg1172
I360
sg1173
F0.29999999999999999
sg1174
I0
sg1175
F150
sg31
S'168'
p1356
sg10
F4
sg1177
I0
sg13
g1201
sg1202
F150
sg33
S'29'
p1357
sg29
S'AAC'
p1358
sg1205
I1
sg25
S'Range=8.0\nArc (Degrees)=360\nDamage=150.0\nPower Req=150.0\nLock Time=0.3\nComponents Req=4\nDirect Type=impact\nAnti-Missle=yes\nRequires Ammo=yes'
p1359
sg1207
S''
sg1209
F0
sg35
S'AMS Auto Cannon'
p1360
sg1211
I100
sg1212
I4
sg27
F120
sg1213
F8
sg1214
I1
sbsS'40'
p1361
g5
(g1168
g7
NtRp1362
(dp1363
g11
F24
sg12
F0
sg1171
S''
sg1172
I10
sg1173
F2
sg1174
I10
sg1175
F510
sg31
S'233'
p1364
sg10
F6
sg1177
I200
sg13
g1201
sg1202
F400
sg33
S'40'
p1365
sg29
S'LPM'
p1366
sg1205
I0
sg25
S'Range=32.0\nArc (Degrees)=10\nDamage=400.0\nPower Req=510.0\nLock Time=2.0\nComponents Req=4\nMissile Type=impact\nSpeed=10\nTracking (sec)=8.0\nRequires Ammo=yes'
p1367
sg1207
S'impact'
p1368
sg1209
F8
sg35
S'Light Plasma Missile'
p1369
sg1211
I200
sg1212
I4
sg27
F240
sg1213
F32
sg1214
I1
sbsS'41'
p1370
g5
(g1168
g7
NtRp1371
(dp1372
g11
F36
sg12
F0
sg1171
S''
sg1172
I10
sg1173
F2.5
sg1174
I10
sg1175
F740
sg31
S'247'
p1373
sg10
F6
sg1177
I200
sg13
g1201
sg1202
F600
sg33
S'41'
p1374
sg29
S'MPM'
p1375
sg1205
I0
sg25
S'Range=64.0\nArc (Degrees)=10\nDamage=600.0\nPower Req=740.0\nLock Time=2.5\nComponents Req=6\nMissile Type=impact\nSpeed=10\nTracking (sec)=8.0\nRequires Ammo=yes'
p1376
sg1207
S'impact'
p1377
sg1209
F8
sg35
S'Medium Plasma Missile'
p1378
sg1211
I200
sg1212
I6
sg27
F360
sg1213
F64
sg1214
I1
sbsS'1'
g5
(g1168
g7
NtRp1379
(dp1380
g11
F8
sg12
F0
sg1171
S'energy'
p1381
sg1172
I10
sg1173
F2
sg1174
I0
sg1175
F200
sg31
S'34'
p1382
sg10
F2
sg1177
I0
sg13
g1201
sg1202
F150
sg33
S'1'
sg29
S'LPG'
p1383
sg1205
I0
sg25
S'Range=8.0\nArc (Degrees)=10\nDamage=150.0\nPower Req=200.0\nLock Time=2.0\nComponents Req=4\nDirect Type=energy'
p1384
sg1207
S''
sg1209
F0
sg35
S'Light Phasor Gun'
p1385
sg1211
I50
sg1212
I4
sg27
F80
sg1213
F8
sg1214
I0
sbsS'3'
g5
(g1168
g7
NtRp1386
(dp1387
g11
F16
sg12
F0
sg1171
S'energy'
p1388
sg1172
I10
sg1173
F3
sg1174
I0
sg1175
F400
sg31
S'62'
p1389
sg10
F4
sg1177
I0
sg13
g1201
sg1202
F300
sg33
S'3'
sg29
S'HPG'
p1390
sg1205
I0
sg25
S'Range=24.0\nArc (Degrees)=10\nDamage=300.0\nPower Req=400.0\nLock Time=3.0\nComponents Req=8\nDirect Type=energy'
p1391
sg1207
S''
sg1209
F0
sg35
S'Heavy Phasor Gun'
p1392
sg1211
I50
sg1212
I8
sg27
F160
sg1213
F24
sg1214
I0
sbsS'2'
g5
(g1168
g7
NtRp1393
(dp1394
g11
F12
sg12
F0
sg1171
S'energy'
p1395
sg1172
I10
sg1173
F2.5
sg1174
I0
sg1175
F300
sg31
S'48'
p1396
sg10
F2
sg1177
I0
sg13
g1201
sg1202
F225
sg33
S'2'
sg29
S'MPG'
p1397
sg1205
I0
sg25
S'Range=16.0\nArc (Degrees)=10\nDamage=225.0\nPower Req=300.0\nLock Time=2.5\nComponents Req=6\nDirect Type=energy'
p1398
sg1207
S''
sg1209
F0
sg35
S'Medium Phasor Gun'
p1399
sg1211
I50
sg1212
I6
sg27
F120
sg1213
F16
sg1214
I0
sbsS'5'
g5
(g1168
g7
NtRp1400
(dp1401
g11
F16
sg12
F0
sg1171
S'energy'
p1402
sg1172
I10
sg1173
F2
sg1174
I0
sg1175
F300
sg31
S'134'
p1403
sg10
F4
sg1177
I0
sg13
g1201
sg1202
F300
sg33
S'5'
sg29
S'LFC'
p1404
sg1205
I0
sg25
S'Range=12.0\nArc (Degrees)=10\nDamage=300.0\nPower Req=300.0\nLock Time=2.0\nComponents Req=4\nDirect Type=energy'
p1405
sg1207
S''
sg1209
F0
sg35
S'Light Fusion Cannon'
p1406
sg1211
I100
sg1212
I4
sg27
F160
sg1213
F12
sg1214
I0
sbsS'4'
g5
(g1168
g7
NtRp1407
(dp1408
g11
F8
sg12
F0
sg1171
S'energy'
p1409
sg1172
I360
sg1173
F0.29999999999999999
sg1174
I0
sg1175
F100
sg31
S'69'
p1410
sg10
F2
sg1177
I0
sg13
g1201
sg1202
F75
sg33
S'4'
sg29
S'APG'
p1411
sg1205
I1
sg25
S'Range=8.0\nArc (Degrees)=360\nDamage=75.0\nPower Req=100.0\nLock Time=0.3\nComponents Req=4\nDirect Type=energy\nAnti-Missle=yes'
p1412
sg1207
S''
sg1209
F0
sg35
S'AMS Phasor Gun'
p1413
sg1211
I50
sg1212
I4
sg27
F60
sg1213
F8
sg1214
I0
sbsS'7'
g5
(g1168
g7
NtRp1414
(dp1415
g11
F32
sg12
F0
sg1171
S'energy'
p1416
sg1172
I10
sg1173
F3
sg1174
I0
sg1175
F600
sg31
S'162'
p1417
sg10
F8
sg1177
I0
sg13
g1201
sg1202
F600
sg33
S'7'
sg29
S'HFC'
p1418
sg1205
I0
sg25
S'Range=36.0\nArc (Degrees)=10\nDamage=600.0\nPower Req=600.0\nLock Time=3.0\nComponents Req=8\nDirect Type=energy'
p1419
sg1207
S''
sg1209
F0
sg35
S'Heavy Fusion Cannon'
p1420
sg1211
I100
sg1212
I8
sg27
F320
sg1213
F36
sg1214
I0
sbsS'6'
g5
(g1168
g7
NtRp1421
(dp1422
g11
F24
sg12
F0
sg1171
S'energy'
p1423
sg1172
I10
sg1173
F2.5
sg1174
I0
sg1175
F450
sg31
S'148'
p1424
sg10
F6
sg1177
I0
sg13
g1201
sg1202
F450
sg33
S'6'
sg29
S'MFC'
p1425
sg1205
I0
sg25
S'Range=24.0\nArc (Degrees)=10\nDamage=450.0\nPower Req=450.0\nLock Time=2.5\nComponents Req=6\nDirect Type=energy'
p1426
sg1207
S''
sg1209
F0
sg35
S'Medium Fusion Cannon'
p1427
sg1211
I100
sg1212
I6
sg27
F240
sg1213
F24
sg1214
I0
sbsS'9'
g5
(g1168
g7
NtRp1428
(dp1429
g11
F24
sg12
F0
sg1171
S'energy'
p1430
sg1172
I10
sg1173
F2
sg1174
I0
sg1175
F450
sg31
S'234'
p1431
sg10
F6
sg1177
I0
sg13
g1201
sg1202
F600
sg33
S'9'
sg29
S'LPC'
p1432
sg1205
I0
sg25
S'Range=16.0\nArc (Degrees)=10\nDamage=600.0\nPower Req=450.0\nLock Time=2.0\nComponents Req=4\nDirect Type=energy'
p1433
sg1207
S''
sg1209
F0
sg35
S'Light Plasma Cannon'
p1434
sg1211
I200
sg1212
I4
sg27
F240
sg1213
F16
sg1214
I0
sbsS'8'
g5
(g1168
g7
NtRp1435
(dp1436
g11
F12
sg12
F0
sg1171
S'energy'
p1437
sg1172
I360
sg1173
F0.29999999999999999
sg1174
I0
sg1175
F150
sg31
S'169'
p1438
sg10
F4
sg1177
I0
sg13
g1201
sg1202
F150
sg33
S'8'
sg29
S'AFC'
p1439
sg1205
I1
sg25
S'Range=8.0\nArc (Degrees)=360\nDamage=150.0\nPower Req=150.0\nLock Time=0.3\nComponents Req=4\nDirect Type=energy\nAnti-Missle=yes'
p1440
sg1207
S''
sg1209
F0
sg35
S'AMS Fusion Cannon'
p1441
sg1211
I100
sg1212
I4
sg27
F120
sg1213
F8
sg1214
I0
sbsS'51'
p1442
g5
(g1168
g7
NtRp1443
(dp1444
g11
F0
sg12
F100
sg1171
S''
sg1172
I360
sg1173
F8
sg1174
I0
sg1175
F4000
sg31
S'259'
p1445
sg10
F64
sg1177
I0
sg13
g1201
sg1202
F0
sg33
S'51'
p1446
sg29
S'HPL'
p1447
sg1205
I0
sg25
S'Range=256.0\nArc (Degrees)=360\nPower Req=4000.0\nLock Time=8.0\nComponents Req=12'
p1448
sg1207
S''
sg1209
F0
sg35
S'Heavy Plasma Launcher'
p1449
sg1211
I200
sg1212
I12
sg27
F320
sg1213
F256
sg1214
I0
sbsS'39'
p1450
g5
(g1168
g7
NtRp1451
(dp1452
g11
F32
sg12
F0
sg1171
S''
sg1172
I10
sg1173
F3
sg1174
I10
sg1175
F700
sg31
S'161'
p1453
sg10
F8
sg1177
I100
sg13
g1201
sg1202
F400
sg33
S'39'
p1454
sg29
S'HFM'
p1455
sg1205
I0
sg25
S'Range=72.0\nArc (Degrees)=10\nDamage=400.0\nPower Req=700.0\nLock Time=3.0\nComponents Req=8\nMissile Type=impact\nSpeed=10\nTracking (sec)=6.0\nRequires Ammo=yes'
p1456
sg1207
S'impact'
p1457
sg1209
F6
sg35
S'Heavy Fusion Missile'
p1458
sg1211
I100
sg1212
I8
sg27
F320
sg1213
F72
sg1214
I1
sbsS'38'
p1459
g5
(g1168
g7
NtRp1460
(dp1461
g11
F24
sg12
F0
sg1171
S''
sg1172
I10
sg1173
F2.5
sg1174
I10
sg1175
F510
sg31
S'147'
p1462
sg10
F6
sg1177
I100
sg13
g1201
sg1202
F300
sg33
S'38'
p1463
sg29
S'MFM'
p1464
sg1205
I0
sg25
S'Range=48.0\nArc (Degrees)=10\nDamage=300.0\nPower Req=510.0\nLock Time=2.5\nComponents Req=6\nMissile Type=impact\nSpeed=10\nTracking (sec)=6.0\nRequires Ammo=yes'
p1465
sg1207
S'impact'
p1466
sg1209
F6
sg35
S'Medium Fusion Missile'
p1467
sg1211
I100
sg1212
I6
sg27
F240
sg1213
F48
sg1214
I1
sbsS'11'
p1468
g5
(g1168
g7
NtRp1469
(dp1470
g11
F48
sg12
F0
sg1171
S'energy'
p1471
sg1172
I10
sg1173
F3
sg1174
I0
sg1175
F900
sg31
S'262'
p1472
sg10
F12
sg1177
I0
sg13
g1201
sg1202
F1200
sg33
S'11'
p1473
sg29
S'HPC'
p1474
sg1205
I0
sg25
S'Range=48.0\nArc (Degrees)=10\nDamage=1200.0\nPower Req=900.0\nLock Time=3.0\nComponents Req=8\nDirect Type=energy'
p1475
sg1207
S''
sg1209
F0
sg35
S'Heavy Plasma Cannon'
p1476
sg1211
I200
sg1212
I8
sg27
F480
sg1213
F48
sg1214
I0
sbsS'10'
p1477
g5
(g1168
g7
NtRp1478
(dp1479
g11
F36
sg12
F0
sg1171
S'energy'
p1480
sg1172
I10
sg1173
F2.5
sg1174
I0
sg1175
F675
sg31
S'248'
p1481
sg10
F6
sg1177
I0
sg13
g1201
sg1202
F900
sg33
S'10'
p1482
sg29
S'MPC'
p1483
sg1205
I0
sg25
S'Range=32.0\nArc (Degrees)=10\nDamage=900.0\nPower Req=675.0\nLock Time=2.5\nComponents Req=6\nDirect Type=energy'
p1484
sg1207
S''
sg1209
F0
sg35
S'Medium Plasma Cannon'
p1485
sg1211
I200
sg1212
I6
sg27
F360
sg1213
F32
sg1214
I0
sbsS'13'
p1486
g5
(g1168
g7
NtRp1487
(dp1488
g11
F8
sg12
F0
sg1171
S''
sg1172
I10
sg1173
F2
sg1174
I10
sg1175
F115
sg31
S'35'
p1489
sg10
F2
sg1177
I50
sg13
g1201
sg1202
F100
sg33
S'13'
p1490
sg29
S'LNT'
p1491
sg1205
I0
sg25
S'Range=16.0\nArc (Degrees)=10\nDamage=100.0\nPower Req=115.0\nLock Time=2.0\nComponents Req=4\nMissile Type=energy\nSpeed=10\nTracking (sec)=4.0\nRequires Ammo=yes'
p1492
sg1207
S'energy'
p1493
sg1209
F4
sg35
S'Light Nuclear Torpedo'
p1494
sg1211
I50
sg1212
I4
sg27
F80
sg1213
F16
sg1214
I1
sbsS'12'
p1495
g5
(g1168
g7
NtRp1496
(dp1497
g11
F24
sg12
F0
sg1171
S'energy'
p1498
sg1172
I360
sg1173
F0.29999999999999999
sg1174
I0
sg1175
F225
sg31
S'271'
p1499
sg10
F6
sg1177
I0
sg13
g1201
sg1202
F300
sg33
S'12'
p1500
sg29
S'APC'
p1501
sg1205
I1
sg25
S'Range=10.0\nArc (Degrees)=360\nDamage=300.0\nPower Req=225.0\nLock Time=0.3\nComponents Req=4\nDirect Type=energy\nAnti-Missle=yes'
p1502
sg1207
S''
sg1209
F0
sg35
S'AMS Plasma Cannon'
p1503
sg1211
I200
sg1212
I4
sg27
F180
sg1213
F10
sg1214
I0
sbsS'15'
p1504
g5
(g1168
g7
NtRp1505
(dp1506
g11
F16
sg12
F0
sg1171
S''
sg1172
I10
sg1173
F3
sg1174
I10
sg1175
F235
sg31
S'63'
p1507
sg10
F4
sg1177
I50
sg13
g1201
sg1202
F200
sg33
S'15'
p1508
sg29
S'HNT'
p1509
sg1205
I0
sg25
S'Range=48.0\nArc (Degrees)=10\nDamage=200.0\nPower Req=235.0\nLock Time=3.0\nComponents Req=8\nMissile Type=energy\nSpeed=10\nTracking (sec)=4.0\nRequires Ammo=yes'
p1510
sg1207
S'energy'
p1511
sg1209
F4
sg35
S'Heavy Nuclear Torpedo'
p1512
sg1211
I50
sg1212
I8
sg27
F160
sg1213
F48
sg1214
I1
sbsS'14'
p1513
g5
(g1168
g7
NtRp1514
(dp1515
g11
F12
sg12
F0
sg1171
S''
sg1172
I10
sg1173
F2.5
sg1174
I10
sg1175
F175
sg31
S'49'
p1516
sg10
F2
sg1177
I50
sg13
g1201
sg1202
F150
sg33
S'14'
p1517
sg29
S'MNT'
p1518
sg1205
I0
sg25
S'Range=32.0\nArc (Degrees)=10\nDamage=150.0\nPower Req=175.0\nLock Time=2.5\nComponents Req=6\nMissile Type=energy\nSpeed=10\nTracking (sec)=4.0\nRequires Ammo=yes'
p1519
sg1207
S'energy'
p1520
sg1209
F4
sg35
S'Medium Nuclear Torpedo'
p1521
sg1211
I50
sg1212
I6
sg27
F120
sg1213
F32
sg1214
I1
sbsS'17'
p1522
g5
(g1168
g7
NtRp1523
(dp1524
g11
F24
sg12
F0
sg1171
S''
sg1172
I10
sg1173
F2.5
sg1174
I10
sg1175
F255
sg31
S'149'
p1525
sg10
F6
sg1177
I100
sg13
g1201
sg1202
F300
sg33
S'17'
p1526
sg29
S'MFT'
p1527
sg1205
I0
sg25
S'Range=48.0\nArc (Degrees)=10\nDamage=300.0\nPower Req=255.0\nLock Time=2.5\nComponents Req=6\nMissile Type=energy\nSpeed=10\nTracking (sec)=6.0\nRequires Ammo=yes'
p1528
sg1207
S'energy'
p1529
sg1209
F6
sg35
S'Medium Fusion Torpedo'
p1530
sg1211
I100
sg1212
I6
sg27
F240
sg1213
F48
sg1214
I1
sbsS'16'
p1531
g5
(g1168
g7
NtRp1532
(dp1533
g11
F16
sg12
F0
sg1171
S''
sg1172
I10
sg1173
F2
sg1174
I10
sg1175
F175
sg31
S'135'
p1534
sg10
F4
sg1177
I100
sg13
g1201
sg1202
F200
sg33
S'16'
p1535
sg29
S'LFT'
p1536
sg1205
I0
sg25
S'Range=24.0\nArc (Degrees)=10\nDamage=200.0\nPower Req=175.0\nLock Time=2.0\nComponents Req=4\nMissile Type=energy\nSpeed=10\nTracking (sec)=6.0\nRequires Ammo=yes'
p1537
sg1207
S'energy'
p1538
sg1209
F6
sg35
S'Light Fusion Torpedo'
p1539
sg1211
I100
sg1212
I4
sg27
F160
sg1213
F24
sg1214
I1
sbsS'19'
p1540
g5
(g1168
g7
NtRp1541
(dp1542
g11
F24
sg12
F0
sg1171
S''
sg1172
I10
sg1173
F2
sg1174
I10
sg1175
F255
sg31
S'235'
p1543
sg10
F6
sg1177
I200
sg13
g1201
sg1202
F400
sg33
S'19'
p1544
sg29
S'LPT'
p1545
sg1205
I0
sg25
S'Range=32.0\nArc (Degrees)=10\nDamage=400.0\nPower Req=255.0\nLock Time=2.0\nComponents Req=4\nMissile Type=energy\nSpeed=10\nTracking (sec)=8.0\nRequires Ammo=yes'
p1546
sg1207
S'energy'
p1547
sg1209
F8
sg35
S'Light Plasma Torpedo'
p1548
sg1211
I200
sg1212
I4
sg27
F240
sg1213
F32
sg1214
I1
sbsS'18'
p1549
g5
(g1168
g7
NtRp1550
(dp1551
g11
F32
sg12
F0
sg1171
S''
sg1172
I10
sg1173
F3
sg1174
I10
sg1175
F350
sg31
S'163'
p1552
sg10
F8
sg1177
I100
sg13
g1201
sg1202
F400
sg33
S'18'
p1553
sg29
S'HFT'
p1554
sg1205
I0
sg25
S'Range=72.0\nArc (Degrees)=10\nDamage=400.0\nPower Req=350.0\nLock Time=3.0\nComponents Req=8\nMissile Type=energy\nSpeed=10\nTracking (sec)=6.0\nRequires Ammo=yes'
p1555
sg1207
S'energy'
p1556
sg1209
F6
sg35
S'Heavy Fusion Torpedo'
p1557
sg1211
I100
sg1212
I8
sg27
F320
sg1213
F72
sg1214
I1
sbsS'31'
p1558
g5
(g1168
g7
NtRp1559
(dp1560
g11
F36
sg12
F0
sg1171
S'impact'
p1561
sg1172
I10
sg1173
F2.5
sg1174
I0
sg1175
F675
sg31
S'246'
p1562
sg10
F6
sg1177
I0
sg13
g1201
sg1202
F900
sg33
S'31'
p1563
sg29
S'MRG'
p1564
sg1205
I0
sg25
S'Range=32.0\nArc (Degrees)=10\nDamage=900.0\nPower Req=675.0\nLock Time=2.5\nComponents Req=6\nDirect Type=impact\nRequires Ammo=yes'
p1565
sg1207
S''
sg1209
F0
sg35
S'Medium Rail Gun'
p1566
sg1211
I200
sg1212
I6
sg27
F360
sg1213
F32
sg1214
I1
sbsS'30'
p1567
g5
(g1168
g7
NtRp1568
(dp1569
g11
F24
sg12
F0
sg1171
S'impact'
p1570
sg1172
I10
sg1173
F2
sg1174
I0
sg1175
F450
sg31
S'232'
p1571
sg10
F6
sg1177
I0
sg13
g1201
sg1202
F600
sg33
S'30'
p1572
sg29
S'LRG'
p1573
sg1205
I0
sg25
S'Range=16.0\nArc (Degrees)=10\nDamage=600.0\nPower Req=450.0\nLock Time=2.0\nComponents Req=4\nDirect Type=impact\nRequires Ammo=yes'
p1574
sg1207
S''
sg1209
F0
sg35
S'Light Rail Gun'
p1575
sg1211
I200
sg1212
I4
sg27
F240
sg1213
F16
sg1214
I1
sbsS'37'
p1576
g5
(g1168
g7
NtRp1577
(dp1578
g11
F16
sg12
F0
sg1171
S''
sg1172
I10
sg1173
F2
sg1174
I10
sg1175
F350
sg31
S'133'
p1579
sg10
F4
sg1177
I100
sg13
g1201
sg1202
F200
sg33
S'37'
p1580
sg29
S'LFM'
p1581
sg1205
I0
sg25
S'Range=24.0\nArc (Degrees)=10\nDamage=200.0\nPower Req=350.0\nLock Time=2.0\nComponents Req=4\nMissile Type=impact\nSpeed=10\nTracking (sec)=6.0\nRequires Ammo=yes'
p1582
sg1207
S'impact'
p1583
sg1209
F6
sg35
S'Light Fusion Missile'
p1584
sg1211
I100
sg1212
I4
sg27
F160
sg1213
F24
sg1214
I1
sbsS'36'
p1585
g5
(g1168
g7
NtRp1586
(dp1587
g11
F16
sg12
F0
sg1171
S''
sg1172
I10
sg1173
F3
sg1174
I10
sg1175
F475
sg31
S'61'
p1588
sg10
F4
sg1177
I50
sg13
g1201
sg1202
F200
sg33
S'36'
p1589
sg29
S'HNM'
p1590
sg1205
I0
sg25
S'Range=48.0\nArc (Degrees)=10\nDamage=200.0\nPower Req=475.0\nLock Time=3.0\nComponents Req=8\nMissile Type=impact\nSpeed=10\nTracking (sec)=4.0\nRequires Ammo=yes'
p1591
sg1207
S'impact'
p1592
sg1209
F4
sg35
S'Heavy Nuclear Missile'
p1593
sg1211
I50
sg1212
I8
sg27
F160
sg1213
F48
sg1214
I1
sbsS'35'
p1594
g5
(g1168
g7
NtRp1595
(dp1596
g11
F12
sg12
F0
sg1171
S''
sg1172
I10
sg1173
F2.5
sg1174
I10
sg1175
F350
sg31
S'47'
p1597
sg10
F2
sg1177
I50
sg13
g1201
sg1202
F150
sg33
S'35'
p1598
sg29
S'MNM'
p1599
sg1205
I0
sg25
S'Range=32.0\nArc (Degrees)=10\nDamage=150.0\nPower Req=350.0\nLock Time=2.5\nComponents Req=6\nMissile Type=impact\nSpeed=10\nTracking (sec)=4.0\nRequires Ammo=yes'
p1600
sg1207
S'impact'
p1601
sg1209
F4
sg35
S'Medium Nuclear Missile'
p1602
sg1211
I50
sg1212
I6
sg27
F120
sg1213
F32
sg1214
I1
sbsS'34'
p1603
g5
(g1168
g7
NtRp1604
(dp1605
g11
F8
sg12
F0
sg1171
S''
sg1172
I10
sg1173
F2
sg1174
I10
sg1175
F230
sg31
S'33'
p1606
sg10
F2
sg1177
I50
sg13
g1201
sg1202
F100
sg33
S'34'
p1607
sg29
S'LNM'
p1608
sg1205
I0
sg25
S'Range=16.0\nArc (Degrees)=10\nDamage=100.0\nPower Req=230.0\nLock Time=2.0\nComponents Req=4\nMissile Type=impact\nSpeed=10\nTracking (sec)=4.0\nRequires Ammo=yes'
p1609
sg1207
S'impact'
p1610
sg1209
F4
sg35
S'Light Nuclear Missile'
p1611
sg1211
I50
sg1212
I4
sg27
F80
sg1213
F16
sg1214
I1
sbsS'33'
p1612
g5
(g1168
g7
NtRp1613
(dp1614
g11
F24
sg12
F0
sg1171
S'impact'
p1615
sg1172
I360
sg1173
F0.29999999999999999
sg1174
I0
sg1175
F225
sg31
S'270'
p1616
sg10
F6
sg1177
I0
sg13
g1201
sg1202
F300
sg33
S'33'
p1617
sg29
S'ARG'
p1618
sg1205
I1
sg25
S'Range=10.0\nArc (Degrees)=360\nDamage=300.0\nPower Req=225.0\nLock Time=0.3\nComponents Req=4\nDirect Type=impact\nAnti-Missle=yes\nRequires Ammo=yes'
p1619
sg1207
S''
sg1209
F0
sg35
S'AMS Rail Gun'
p1620
sg1211
I200
sg1212
I4
sg27
F180
sg1213
F10
sg1214
I1
sbsS'32'
p1621
g5
(g1168
g7
NtRp1622
(dp1623
g11
F48
sg12
F0
sg1171
S'impact'
p1624
sg1172
I10
sg1173
F3
sg1174
I0
sg1175
F900
sg31
S'260'
p1625
sg10
F12
sg1177
I0
sg13
g1201
sg1202
F1200
sg33
S'32'
p1626
sg29
S'HRG'
p1627
sg1205
I0
sg25
S'Range=48.0\nArc (Degrees)=10\nDamage=1200.0\nPower Req=900.0\nLock Time=3.0\nComponents Req=8\nDirect Type=impact\nRequires Ammo=yes'
p1628
sg1207
S''
sg1209
F0
sg35
S'Heavy Rail Gun'
p1629
sg1211
I200
sg1212
I8
sg27
F480
sg1213
F48
sg1214
I1
sbsS'50'
p1630
g5
(g1168
g7
NtRp1631
(dp1632
g11
F0
sg12
F100
sg1171
S''
sg1172
I360
sg1173
F7
sg1174
I0
sg1175
F3500
sg31
S'245'
p1633
sg10
F56
sg1177
I0
sg13
g1201
sg1202
F0
sg33
S'50'
p1634
sg29
S'MPL'
p1635
sg1205
I0
sg25
S'Range=224.0\nArc (Degrees)=360\nPower Req=3500.0\nLock Time=7.0\nComponents Req=10'
p1636
sg1207
S''
sg1209
F0
sg35
S'Medium Plasma Launcher'
p1637
sg1211
I200
sg1212
I10
sg27
F280
sg1213
F224
sg1214
I0
sbssS'dronehulldata'
p1638
(dp1639
S'108'
p1640
g5
(canw.war.shiphulldata
DroneHullData
p1641
g7
NtRp1642
(dp1643
S'function'
p1644
S'drone'
p1645
sS'hardPoints'
p1646
(dp1647
S'fore-4'
p1648
(lp1649
I270
aI5
asS'fore-3'
p1650
(lp1651
I180
aI5
asS'fore-2'
p1652
(lp1653
I90
aI5
asS'fore-1'
p1654
(lp1655
I0
aI0
assg10
F35
sg11
F35
sg12
F70
sg13
(S'id'
p1656
S'name'
p1657
S'abr'
p1658
S'costCR'
p1659
S'costAL'
p1660
S'costEC'
p1661
S'costIA'
p1662
S'techReq'
p1663
S'description'
p1664
S'function'
p1665
S'size'
p1666
S'componentNum'
p1667
S'maxISP'
p1668
S'mass'
p1669
tp1670
sg25
S'test'
p1671
sS'size'
p1672
S'tiny'
p1673
sg27
F1400
sg29
S'MPD'
p1674
sS'componentNum'
p1675
I14
sS'maxISP'
p1676
F1000
sg632
F1500
sg31
S'245'
p1677
sg33
S'108'
p1678
sg35
S'Medium Plasma Drone'
p1679
sbsS'109'
p1680
g5
(g1641
g7
NtRp1681
(dp1682
g1644
S'drone'
p1683
sg1646
(dp1684
g1648
(lp1685
I270
aI5
asg1650
(lp1686
I180
aI5
asg1652
(lp1687
I90
aI5
asg1654
(lp1688
I0
aI0
assg10
F40
sg11
F40
sg12
F80
sg13
g1670
sg25
S'test'
p1689
sg1672
S'tiny'
p1690
sg27
F1600
sg29
S'HPD'
p1691
sg1675
I16
sg1676
F1200
sg632
F2000
sg31
S'259'
p1692
sg33
S'109'
p1693
sg35
S'Heavy Plasma Drone'
p1694
sbsS'102'
p1695
g5
(g1641
g7
NtRp1696
(dp1697
g1644
S'drone'
p1698
sg1646
(dp1699
g1648
(lp1700
I270
aI5
asg1650
(lp1701
I180
aI5
asg1652
(lp1702
I90
aI5
asg1654
(lp1703
I0
aI0
assg10
F25
sg11
F25
sg12
F50
sg13
g1670
sg25
S'test'
p1704
sg1672
S'tiny'
p1705
sg27
F1000
sg29
S'MND'
p1706
sg1675
I10
sg1676
F600
sg632
F1500
sg31
S'45'
p1707
sg33
S'102'
p1708
sg35
S'Medium Nuclear Drone'
p1709
sbsS'103'
p1710
g5
(g1641
g7
NtRp1711
(dp1712
g1644
S'drone'
p1713
sg1646
(dp1714
g1648
(lp1715
I270
aI5
asg1650
(lp1716
I180
aI5
asg1652
(lp1717
I90
aI5
asg1654
(lp1718
I0
aI0
assg10
F30
sg11
F30
sg12
F60
sg13
g1670
sg25
S'test'
p1719
sg1672
S'tiny'
p1720
sg27
F1200
sg29
S'HND'
p1721
sg1675
I12
sg1676
F700
sg632
F2000
sg31
S'59'
p1722
sg33
S'103'
p1723
sg35
S'Heavy Nuclear Drone'
p1724
sbsS'101'
p1725
g5
(g1641
g7
NtRp1726
(dp1727
g1644
S'drone'
p1728
sg1646
(dp1729
g1648
(lp1730
I270
aI5
asg1650
(lp1731
I180
aI5
asg1652
(lp1732
I90
aI5
asg1654
(lp1733
I0
aI0
assg10
F20
sg11
F20
sg12
F40
sg13
g1670
sg25
S'test'
p1734
sg1672
S'tiny'
p1735
sg27
F800
sg29
S'LND'
p1736
sg1675
I8
sg1676
F500
sg632
F1000
sg31
S'31'
p1737
sg33
S'101'
p1738
sg35
S'Light Nuclear Drone'
p1739
sbsS'106'
p1740
g5
(g1641
g7
NtRp1741
(dp1742
g1644
S'drone'
p1743
sg1646
(dp1744
g1648
(lp1745
I270
aI5
asg1650
(lp1746
I180
aI5
asg1652
(lp1747
I90
aI5
asg1654
(lp1748
I0
aI0
assg10
F35
sg11
F35
sg12
F70
sg13
g1670
sg25
S'test'
p1749
sg1672
S'tiny'
p1750
sg27
F1400
sg29
S'HFD'
p1751
sg1675
I14
sg1676
F900
sg632
F2000
sg31
S'159'
p1752
sg33
S'106'
p1753
sg35
S'Heavy Fusion Drone'
p1754
sbsS'107'
p1755
g5
(g1641
g7
NtRp1756
(dp1757
g1644
S'drone'
p1758
sg1646
(dp1759
g1648
(lp1760
I270
aI5
asg1650
(lp1761
I180
aI5
asg1652
(lp1762
I90
aI5
asg1654
(lp1763
I0
aI0
assg10
F30
sg11
F30
sg12
F60
sg13
g1670
sg25
S'test'
p1764
sg1672
S'tiny'
p1765
sg27
F1200
sg29
S'LPD'
p1766
sg1675
I12
sg1676
F900
sg632
F1000
sg31
S'231'
p1767
sg33
S'107'
p1768
sg35
S'Light Plasma Drone'
p1769
sbsS'104'
p1770
g5
(g1641
g7
NtRp1771
(dp1772
g1644
S'drone'
p1773
sg1646
(dp1774
g1648
(lp1775
I270
aI5
asg1650
(lp1776
I180
aI5
asg1652
(lp1777
I90
aI5
asg1654
(lp1778
I0
aI0
assg10
F25
sg11
F25
sg12
F50
sg13
g1670
sg25
S'test'
p1779
sg1672
S'tiny'
p1780
sg27
F1000
sg29
S'LFD'
p1781
sg1675
I10
sg1676
F700
sg632
F1000
sg31
S'131'
p1782
sg33
S'104'
p1783
sg35
S'Light Fusion Drone'
p1784
sbsS'105'
p1785
g5
(g1641
g7
NtRp1786
(dp1787
g1644
S'drone'
p1788
sg1646
(dp1789
g1648
(lp1790
I270
aI5
asg1650
(lp1791
I180
aI5
asg1652
(lp1792
I90
aI5
asg1654
(lp1793
I0
aI0
assg10
F30
sg11
F30
sg12
F60
sg13
g1670
sg25
S'test'
p1794
sg1672
S'tiny'
p1795
sg27
F1200
sg29
S'MFD'
p1796
sg1675
I12
sg1676
F800
sg632
F1500
sg31
S'145'
p1797
sg33
S'105'
p1798
sg35
S'Medium Fusion Drone'
p1799
sbssS'shiphulldata'
p1800
(dp1801
S'11'
p1802
g5
(canw.war.shiphulldata
ShipHullData
p1803
g7
NtRp1804
(dp1805
g1644
S'warship'
p1806
sg1646
(dp1807
S'aft-1'
p1808
(lp1809
I180
aI16
asS'aft-3'
p1810
(lp1811
I180
aI16
asS'aft-2'
p1812
(lp1813
I180
aI16
asS'aft-5'
p1814
(lp1815
I180
aI16
asS'aft-4'
p1816
(lp1817
I180
aI16
asS'aft-6'
p1818
(lp1819
I180
aI16
asS'fore-6'
p1820
(lp1821
I0
aI16
asS'fore-5'
p1822
(lp1823
I0
aI16
asS'fore-4'
p1824
(lp1825
I0
aI16
asS'fore-3'
p1826
(lp1827
I0
aI16
asS'fore-2'
p1828
(lp1829
I0
aI16
asS'fore-1'
p1830
(lp1831
I0
aI16
asS'star-1'
p1832
(lp1833
I90
aI16
asS'star-3'
p1834
(lp1835
I90
aI16
asS'star-2'
p1836
(lp1837
I90
aI16
asS'star-5'
p1838
(lp1839
I90
aI16
asS'star-4'
p1840
(lp1841
I90
aI16
asS'star-6'
p1842
(lp1843
I90
aI16
asS'port-4'
p1844
(lp1845
I270
aI16
asS'port-5'
p1846
(lp1847
I270
aI16
asS'port-6'
p1848
(lp1849
I270
aI16
asS'port-1'
p1850
(lp1851
I270
aI16
asS'port-2'
p1852
(lp1853
I270
aI16
asS'port-3'
p1854
(lp1855
I270
aI16
assg10
F1080
sg11
F2160
sg12
F4320
sg13
g1670
sg25
S'test'
p1856
sg1672
S'large'
p1857
sg27
F43200
sg29
S'DRN'
p1858
sg1675
I24
sg1676
F15000
sg632
F26000
sg31
S'268'
p1859
sg33
S'11'
p1860
sg35
S'Dread naught'
p1861
sbsS'10'
p1862
g5
(g1803
g7
NtRp1863
(dp1864
g1644
S'warship'
p1865
sg1646
(dp1866
g1808
(lp1867
I180
aI16
asg1844
(lp1868
I270
aI16
asg1810
(lp1869
I180
aI16
asg1812
(lp1870
I180
aI16
asg1814
(lp1871
I180
aI16
asg1850
(lp1872
I270
aI16
asg1852
(lp1873
I270
aI16
asg1854
(lp1874
I270
aI16
asg1822
(lp1875
I0
aI16
asg1824
(lp1876
I0
aI16
asg1826
(lp1877
I0
aI16
asg1828
(lp1878
I0
aI16
asg1830
(lp1879
I0
aI16
asg1832
(lp1880
I90
aI16
asg1834
(lp1881
I90
aI16
asg1836
(lp1882
I90
aI16
asg1838
(lp1883
I90
aI16
asg1840
(lp1884
I90
aI16
asg1846
(lp1885
I270
aI16
asg1816
(lp1886
I180
aI16
assg10
F660
sg11
F1320
sg12
F2640
sg13
g1670
sg25
S'test'
p1887
sg1672
S'large'
p1888
sg27
F26400
sg29
S'BCU'
p1889
sg1675
I22
sg1676
F12000
sg632
F24000
sg31
S'257'
p1890
sg33
S'10'
p1891
sg35
S'Battle Cruiser'
p1892
sbsS'13'
p1893
g5
(g1803
g7
NtRp1894
(dp1895
g1644
S'carrier'
p1896
sg1646
(dp1897
g1850
(lp1898
I320
aI25
asg1852
(lp1899
I260
aI20
asg1854
(lp1900
I210
aI25
asg1808
(lp1901
I170
aI15
asg1810
(lp1902
I180
aI15
asg1812
(lp1903
I190
aI15
asg1826
(lp1904
I0
aI15
asg1828
(lp1905
I350
aI15
asg1830
(lp1906
I10
aI15
asg1832
(lp1907
I40
aI25
asg1834
(lp1908
I150
aI25
asg1836
(lp1909
I260
aI20
assg10
F180
sg11
F360
sg12
F720
sg13
g1670
sg25
S'test'
p1910
sg1672
S'large'
p1911
sg27
F7200
sg29
S'ECA'
p1912
sg1675
I12
sg1676
F2000
sg632
F14000
sg31
S'58'
p1913
sg33
S'13'
p1914
sg35
S'Escort Carrier'
p1915
sbsS'12'
p1916
g5
(g1803
g7
NtRp1917
(dp1918
g1644
S'warship'
p1919
sg1646
(dp1920
g1808
(lp1921
I180
aI16
asg1810
(lp1922
I180
aI16
asg1812
(lp1923
I180
aI16
asg1814
(lp1924
I180
aI16
asg1816
(lp1925
I180
aI16
asS'aft-7'
p1926
(lp1927
I180
aI16
asg1818
(lp1928
I180
aI16
asS'fore-7'
p1929
(lp1930
I0
aI16
asg1820
(lp1931
I0
aI16
asg1822
(lp1932
I0
aI16
asg1824
(lp1933
I0
aI16
asg1826
(lp1934
I0
aI16
asg1828
(lp1935
I0
aI16
asg1830
(lp1936
I0
aI16
asg1832
(lp1937
I90
aI16
asg1834
(lp1938
I90
aI16
asg1836
(lp1939
I90
aI16
asg1838
(lp1940
I90
aI16
asg1840
(lp1941
I90
aI16
asS'star-7'
p1942
(lp1943
I90
aI16
asg1842
(lp1944
I90
aI16
asg1844
(lp1945
I270
aI16
asg1846
(lp1946
I270
aI16
asg1848
(lp1947
I270
aI16
asS'port-7'
p1948
(lp1949
I270
aI16
asg1850
(lp1950
I270
aI16
asg1852
(lp1951
I270
aI16
asg1854
(lp1952
I270
aI16
assg10
F1260
sg11
F2520
sg12
F5040
sg13
g1670
sg25
S'test'
p1953
sg1672
S'large'
p1954
sg27
F50400
sg29
S'SDN'
p1955
sg1675
I28
sg1676
F20000
sg632
F30000
sg31
S'269'
p1956
sg33
S'12'
p1957
sg35
S'Super Dread naught'
p1958
sbsS'15'
p1959
g5
(g1803
g7
NtRp1960
(dp1961
g1644
S'carrier'
p1962
sg1646
(dp1963
g1808
(lp1964
I180
aI16
asg1844
(lp1965
I270
aI16
asg1810
(lp1966
I180
aI16
asg1812
(lp1967
I180
aI16
asg1814
(lp1968
I180
aI16
asg1850
(lp1969
I270
aI16
asg1852
(lp1970
I270
aI16
asg1854
(lp1971
I270
aI16
asg1822
(lp1972
I0
aI16
asg1824
(lp1973
I0
aI16
asg1826
(lp1974
I0
aI16
asg1828
(lp1975
I0
aI16
asg1830
(lp1976
I0
aI16
asg1832
(lp1977
I90
aI16
asg1834
(lp1978
I90
aI16
asg1836
(lp1979
I90
aI16
asg1838
(lp1980
I90
aI16
asg1840
(lp1981
I90
aI16
asg1846
(lp1982
I270
aI16
asg1816
(lp1983
I180
aI16
assg10
F900
sg11
F1800
sg12
F3600
sg13
g1670
sg25
S'test'
p1984
sg1672
S'large'
p1985
sg27
F36000
sg29
S'BCA'
p1986
sg1675
I20
sg1676
F8000
sg632
F22000
sg31
S'258'
p1987
sg33
S'15'
p1988
sg35
S'Battle Carrier'
p1989
sbsS'14'
p1990
g5
(g1803
g7
NtRp1991
(dp1992
g1644
S'carrier'
p1993
sg1646
(dp1994
g1808
(lp1995
I180
aI16
asg1844
(lp1996
I270
aI16
asg1810
(lp1997
I180
aI16
asg1812
(lp1998
I180
aI16
asg1850
(lp1999
I270
aI16
asg1852
(lp2000
I270
aI16
asg1854
(lp2001
I270
aI16
asg1824
(lp2002
I0
aI16
asg1826
(lp2003
I0
aI16
asg1828
(lp2004
I0
aI16
asg1830
(lp2005
I0
aI16
asg1832
(lp2006
I90
aI16
asg1834
(lp2007
I90
aI16
asg1836
(lp2008
I90
aI16
asg1840
(lp2009
I90
aI16
asg1816
(lp2010
I180
aI16
assg10
F480
sg11
F960
sg12
F1920
sg13
g1670
sg25
S'test'
p2011
sg1672
S'large'
p2012
sg27
F19200
sg29
S'HCA'
p2013
sg1675
I16
sg1676
F4000
sg632
F18000
sg31
S'158'
p2014
sg33
S'14'
p2015
sg35
S'Heavy Carrier'
p2016
sbsS'17'
p2017
g5
(g1803
g7
NtRp2018
(dp2019
g1644
S'assault'
p2020
sg1646
(dp2021
g1808
(lp2022
I180
aI16
asg1844
(lp2023
I270
aI16
asg1810
(lp2024
I180
aI16
asg1812
(lp2025
I180
aI16
asg1850
(lp2026
I270
aI16
asg1852
(lp2027
I270
aI16
asg1854
(lp2028
I270
aI16
asg1824
(lp2029
I0
aI16
asg1826
(lp2030
I0
aI16
asg1828
(lp2031
I0
aI16
asg1830
(lp2032
I0
aI16
asg1832
(lp2033
I90
aI16
asg1834
(lp2034
I90
aI16
asg1836
(lp2035
I90
aI16
asg1840
(lp2036
I90
aI16
asg1816
(lp2037
I180
aI16
assg10
F480
sg11
F960
sg12
F1920
sg13
g1670
sg25
S'test'
p2038
sg1672
S'small'
p2039
sg27
F19200
sg29
S'HAS'
p2040
sg1675
I16
sg1676
F4000
sg632
F14000
sg31
S'121'
p2041
sg33
S'17'
p2042
sg35
S'Heavy Assault Ship'
p2043
sbsS'16'
p2044
g5
(g1803
g7
NtRp2045
(dp2046
g1644
S'assault'
p2047
sg1646
(dp2048
g1850
(lp2049
I320
aI25
asg1852
(lp2050
I260
aI20
asg1854
(lp2051
I210
aI25
asg1808
(lp2052
I170
aI15
asg1810
(lp2053
I180
aI15
asg1812
(lp2054
I190
aI15
asg1826
(lp2055
I0
aI15
asg1828
(lp2056
I350
aI15
asg1830
(lp2057
I10
aI15
asg1832
(lp2058
I40
aI25
asg1834
(lp2059
I150
aI25
asg1836
(lp2060
I260
aI20
assg10
F180
sg11
F360
sg12
F720
sg13
g1670
sg25
S'test'
p2061
sg1672
S'small'
p2062
sg27
F7200
sg29
S'LAS'
p2063
sg1675
I12
sg1676
F2000
sg632
F12000
sg31
S'21'
p2064
sg33
S'16'
p2065
sg35
S'Light Assault Ship'
p2066
sbsS'19'
p2067
g5
(g1803
g7
NtRp2068
(dp2069
g1644
S'platform'
p2070
sg1646
(dp2071
g1808
(lp2072
I180
aI16
asg1844
(lp2073
I270
aI16
asg1810
(lp2074
I180
aI16
asg1812
(lp2075
I180
aI16
asg1814
(lp2076
I180
aI16
asg1850
(lp2077
I270
aI16
asg1852
(lp2078
I270
aI16
asg1854
(lp2079
I270
aI16
asg1822
(lp2080
I0
aI16
asg1824
(lp2081
I0
aI16
asg1826
(lp2082
I0
aI16
asg1828
(lp2083
I0
aI16
asg1830
(lp2084
I0
aI16
asg1832
(lp2085
I90
aI16
asg1834
(lp2086
I90
aI16
asg1836
(lp2087
I90
aI16
asg1838
(lp2088
I90
aI16
asg1840
(lp2089
I90
aI16
asg1846
(lp2090
I270
aI16
asg1816
(lp2091
I180
aI16
assg10
F150
sg11
F300
sg12
F600
sg13
g1670
sg25
S'test'
p2092
sg1672
S'large'
p2093
sg27
F6000
sg29
S'LWP'
p2094
sg1675
I20
sg1676
F10000
sg632
F12000
sg31
S'20'
p2095
sg33
S'19'
p2096
sg35
S'Light Weapons Platform'
p2097
sbsS'18'
p2098
g5
(g1803
g7
NtRp2099
(dp2100
g1644
S'assault'
p2101
sg1646
(dp2102
g1808
(lp2103
I180
aI16
asg1844
(lp2104
I270
aI16
asg1810
(lp2105
I180
aI16
asg1812
(lp2106
I180
aI16
asg1814
(lp2107
I180
aI16
asg1850
(lp2108
I270
aI16
asg1852
(lp2109
I270
aI16
asg1854
(lp2110
I270
aI16
asg1822
(lp2111
I0
aI16
asg1824
(lp2112
I0
aI16
asg1826
(lp2113
I0
aI16
asg1828
(lp2114
I0
aI16
asg1830
(lp2115
I0
aI16
asg1832
(lp2116
I90
aI16
asg1834
(lp2117
I90
aI16
asg1836
(lp2118
I90
aI16
asg1838
(lp2119
I90
aI16
asg1840
(lp2120
I90
aI16
asg1846
(lp2121
I270
aI16
asg1816
(lp2122
I180
aI16
assg10
F900
sg11
F1800
sg12
F3600
sg13
g1670
sg25
S'test'
p2123
sg1672
S'small'
p2124
sg27
F36000
sg29
S'BAS'
p2125
sg1675
I20
sg1676
F8000
sg632
F16000
sg31
S'221'
p2126
sg33
S'18'
p2127
sg35
S'Battle Assault Ship'
p2128
sbsS'20'
p2129
g5
(g1803
g7
NtRp2130
(dp2131
g1644
S'platform'
p2132
sg1646
(dp2133
g1808
(lp2134
I180
aI16
asg1810
(lp2135
I180
aI16
asg1812
(lp2136
I180
aI16
asg1814
(lp2137
I180
aI16
asg1816
(lp2138
I180
aI16
asg1926
(lp2139
I180
aI16
asg1818
(lp2140
I180
aI16
asg1929
(lp2141
I0
aI16
asg1820
(lp2142
I0
aI16
asg1822
(lp2143
I0
aI16
asg1824
(lp2144
I0
aI16
asg1826
(lp2145
I0
aI16
asg1828
(lp2146
I0
aI16
asg1830
(lp2147
I0
aI16
asg1832
(lp2148
I90
aI16
asg1834
(lp2149
I90
aI16
asg1836
(lp2150
I90
aI16
asg1838
(lp2151
I90
aI16
asg1840
(lp2152
I90
aI16
asg1942
(lp2153
I90
aI16
asg1842
(lp2154
I90
aI16
asg1844
(lp2155
I270
aI16
asg1846
(lp2156
I270
aI16
asg1848
(lp2157
I270
aI16
asg1948
(lp2158
I270
aI16
asg1850
(lp2159
I270
aI16
asg1852
(lp2160
I270
aI16
asg1854
(lp2161
I270
aI16
assg10
F420
sg11
F840
sg12
F1680
sg13
g1670
sg25
S'test'
p2162
sg1672
S'large'
p2163
sg27
F16800
sg29
S'HWP'
p2164
sg1675
I28
sg1676
F15000
sg632
F14000
sg31
S'120'
p2165
sg33
S'20'
p2166
sg35
S'Heavy Weapons Platform'
p2167
sbsS'1'
g5
(g1803
g7
NtRp2168
(dp2169
g1644
S'warship'
p2170
sg1646
(dp2171
g1808
(lp2172
I180
aI7
asg1832
(lp2173
I135
aI7
asg1850
(lp2174
I225
aI7
asg1830
(lp2175
I0
aI8
assg10
F60
sg11
F120
sg12
F240
sg13
g1670
sg25
S'test'
p2176
sg1672
S'small'
p2177
sg27
F2400
sg29
S'SCT'
p2178
sg1675
I4
sg1676
F400
sg632
F4000
sg31
S'19'
p2179
sg33
S'1'
sg35
S'Scout'
p2180
sbsS'3'
g5
(g1803
g7
NtRp2181
(dp2182
g1644
S'warship'
p2183
sg1646
(dp2184
g1808
(lp2185
I150
aI4
asg1832
(lp2186
I240
aI16
asg1836
(lp2187
I240
aI12
asg1812
(lp2188
I210
aI4
asg1850
(lp2189
I120
aI16
asg1852
(lp2190
I120
aI12
asg1828
(lp2191
I330
aI4
asg1830
(lp2192
I30
aI4
assg10
F120
sg11
F240
sg12
F480
sg13
g1670
sg25
S'test'
p2193
sg1672
S'small'
p2194
sg27
F4800
sg29
S'COR'
p2195
sg1675
I8
sg1676
F800
sg632
F8000
sg31
S'44'
p2196
sg33
S'3'
sg35
S'Corvette'
p2197
sbsS'2'
g5
(g1803
g7
NtRp2198
(dp2199
g1644
S'warship'
p2200
sg1646
(dp2201
g1808
(lp2202
I180
aI8
asg1832
(lp2203
I90
aI8
asg1850
(lp2204
I270
aI8
asg1830
(lp2205
I0
aI8
assg10
F90
sg11
F180
sg12
F360
sg13
g1670
sg25
S'test'
p2206
sg1672
S'small'
p2207
sg27
F3600
sg29
S'INT'
p2208
sg1675
I6
sg1676
F600
sg632
F6000
sg31
S'30'
p2209
sg33
S'2'
sg35
S'Interceptor'
p2210
sbsS'5'
g5
(g1803
g7
NtRp2211
(dp2212
g1644
S'warship'
p2213
sg1646
(dp2214
g1850
(lp2215
I340
aI12
asg1852
(lp2216
I330
aI4
asg1854
(lp2217
I225
aI26
asg1808
(lp2218
I225
aI8
asg1810
(lp2219
I180
aI8
asg1812
(lp2220
I135
aI8
asg1826
(lp2221
I350
aI30
asg1828
(lp2222
I10
aI30
asg1830
(lp2223
I0
aI30
asg1832
(lp2224
I20
aI12
asg1834
(lp2225
I135
aI26
asg1836
(lp2226
I30
aI4
assg10
F180
sg11
F360
sg12
F720
sg13
g1670
sg25
S'test'
p2227
sg1672
S'large'
p2228
sg27
F7200
sg29
S'FRG'
p2229
sg1675
I12
sg1676
F2000
sg632
F12000
sg31
S'130'
p2230
sg33
S'5'
sg35
S'Frigate'
p2231
sbsS'4'
g5
(g1803
g7
NtRp2232
(dp2233
g1644
S'warship'
p2234
sg1646
(dp2235
g1808
(lp2236
I150
aI4
asg1832
(lp2237
I240
aI16
asg1836
(lp2238
I240
aI12
asg1812
(lp2239
I210
aI4
asg1850
(lp2240
I120
aI16
asg1852
(lp2241
I120
aI12
asg1828
(lp2242
I330
aI4
asg1830
(lp2243
I30
aI4
assg10
F150
sg11
F300
sg12
F600
sg13
g1670
sg25
S'test'
p2244
sg1672
S'small'
p2245
sg27
F6000
sg29
S'HCO'
p2246
sg1675
I10
sg1676
F1000
sg632
F10000
sg31
S'57'
p2247
sg33
S'4'
sg35
S'Heavy Corvette'
p2248
sbsS'7'
g5
(g1803
g7
NtRp2249
(dp2250
g1644
S'warship'
p2251
sg1646
(dp2252
g1808
(lp2253
I180
aI20
asg1844
(lp2254
I225
aI30
asg1810
(lp2255
I220
aI20
asg1812
(lp2256
I200
aI20
asg1850
(lp2257
I337
aI20
asg1852
(lp2258
I330
aI14
asg1854
(lp2259
I315
aI4
asg1824
(lp2260
I347
aI46
asg1826
(lp2261
I13
aI46
asg1828
(lp2262
I355
aI46
asg1830
(lp2263
I5
aI46
asg1832
(lp2264
I23
aI20
asg1834
(lp2265
I45
aI4
asg1836
(lp2266
I30
aI14
asg1840
(lp2267
I135
aI30
asg1816
(lp2268
I180
aI30
assg10
F240
sg11
F480
sg12
F960
sg13
g1670
sg25
S'test'
p2269
sg1672
S'large'
p2270
sg27
F9600
sg29
S'DST'
p2271
sg1675
I16
sg1676
F4000
sg632
F16000
sg31
S'157'
p2272
sg33
S'7'
sg35
S'Destroyer'
p2273
sbsS'6'
g5
(g1803
g7
NtRp2274
(dp2275
g1644
S'warship'
p2276
sg1646
(dp2277
g1850
(lp2278
I335
aI18
asg1852
(lp2279
I330
aI10
asg1854
(lp2280
I225
aI30
asg1808
(lp2281
I225
aI8
asg1810
(lp2282
I180
aI8
asg1812
(lp2283
I135
aI8
asg1826
(lp2284
I350
aI35
asg1828
(lp2285
I10
aI35
asg1830
(lp2286
I0
aI35
asg1832
(lp2287
I25
aI18
asg1834
(lp2288
I135
aI30
asg1836
(lp2289
I30
aI10
assg10
F210
sg11
F420
sg12
F840
sg13
g1670
sg25
S'test'
p2290
sg1672
S'large'
p2291
sg27
F8400
sg29
S'BFR'
p2292
sg1675
I14
sg1676
F3000
sg632
F14000
sg31
S'144'
p2293
sg33
S'6'
sg35
S'Battle Frigate'
p2294
sbsS'9'
g5
(g1803
g7
NtRp2295
(dp2296
g1644
S'warship'
p2297
sg1646
(dp2298
g1808
(lp2299
I180
aI40
asg1844
(lp2300
I255
aI18
asg1810
(lp2301
I220
aI30
asg1812
(lp2302
I200
aI30
asg1814
(lp2303
I220
aI40
asg1850
(lp2304
I260
aI40
asg1852
(lp2305
I250
aI42
asg1854
(lp2306
I235
aI44
asg1822
(lp2307
I0
aI50
asg1824
(lp2308
I346
aI45
asg1826
(lp2309
I16
aI45
asg1828
(lp2310
I353
aI50
asg1830
(lp2311
I7
aI50
asg1832
(lp2312
I100
aI40
asg1834
(lp2313
I125
aI44
asg1836
(lp2314
I110
aI42
asg1838
(lp2315
I90
aI16
asg1840
(lp2316
I105
aI18
asg1846
(lp2317
I270
aI16
asg1816
(lp2318
I200
aI40
assg10
F600
sg11
F1200
sg12
F2400
sg13
g1670
sg25
S'test'
p2319
sg1672
S'large'
p2320
sg27
F24000
sg29
S'HCU'
p2321
sg1675
I20
sg1676
F10000
sg632
F22000
sg31
S'244'
p2322
sg33
S'9'
sg35
S'Heavy Cruiser'
p2323
sbsS'8'
g5
(g1803
g7
NtRp2324
(dp2325
g1644
S'warship'
p2326
sg1646
(dp2327
g1808
(lp2328
I180
aI40
asg1844
(lp2329
I260
aI18
asg1810
(lp2330
I220
aI30
asg1812
(lp2331
I200
aI30
asg1850
(lp2332
I260
aI40
asg1852
(lp2333
I250
aI42
asg1854
(lp2334
I235
aI44
asg1824
(lp2335
I347
aI45
asg1826
(lp2336
I13
aI45
asg1828
(lp2337
I355
aI50
asg1830
(lp2338
I5
aI50
asg1832
(lp2339
I100
aI40
asg1834
(lp2340
I125
aI44
asg1836
(lp2341
I110
aI42
asg1840
(lp2342
I100
aI18
asg1816
(lp2343
I180
aI10
assg10
F540
sg11
F1080
sg12
F2160
sg13
g1670
sg25
S'test'
p2344
sg1672
S'large'
p2345
sg27
F21600
sg29
S'CRU'
p2346
sg1675
I18
sg1676
F8000
sg632
F20000
sg31
S'230'
p2347
sg33
S'8'
sg35
S'Cruiser'
p2348
sbsS'21'
p2349
g5
(g1803
g7
NtRp2350
(dp2351
g1644
S'platform'
p2352
sg1646
(dp2353
g1844
(lp2354
I270
aI16
asg1846
(lp2355
I270
aI16
asg1848
(lp2356
I270
aI16
asg1948
(lp2357
I270
aI16
asg1850
(lp2358
I270
aI16
asg1852
(lp2359
I270
aI16
asg1854
(lp2360
I270
aI16
asS'port-8'
p2361
(lp2362
I270
aI16
asS'port-9'
p2363
(lp2364
I270
aI16
asS'star-8'
p2365
(lp2366
I90
aI16
asS'fore-8'
p2367
(lp2368
I0
aI16
asg1808
(lp2369
I180
aI16
asg1810
(lp2370
I180
aI16
asg1812
(lp2371
I180
aI16
asg1814
(lp2372
I180
aI16
asg1816
(lp2373
I180
aI16
asg1926
(lp2374
I180
aI16
asg1818
(lp2375
I180
aI16
asg1929
(lp2376
I0
aI16
asg1820
(lp2377
I0
aI16
asg1822
(lp2378
I0
aI16
asg1824
(lp2379
I0
aI16
asg1826
(lp2380
I0
aI16
asg1828
(lp2381
I0
aI16
asg1830
(lp2382
I0
aI16
asg1832
(lp2383
I90
aI16
asS'aft-9'
p2384
(lp2385
I180
aI16
asg1834
(lp2386
I90
aI16
asg1836
(lp2387
I90
aI16
asg1838
(lp2388
I90
aI16
asg1840
(lp2389
I90
aI16
asg1942
(lp2390
I90
aI16
asg1842
(lp2391
I90
aI16
asS'star-9'
p2392
(lp2393
I90
aI16
asS'aft-8'
p2394
(lp2395
I180
aI16
asS'fore-9'
p2396
(lp2397
I0
aI16
assg10
F810
sg11
F1620
sg12
F3240
sg13
g1670
sg25
S'test'
p2398
sg1672
S'large'
p2399
sg27
F32400
sg29
S'BWP'
p2400
sg1675
I36
sg1676
F20000
sg632
F16000
sg31
S'220'
p2401
sg33
S'21'
p2402
sg35
S'Battle Weapons Platform'
p2403
sbss.