(dp1
S'regimentdata'
p2
(dp3
S'24'
p4
ccopy_reg
_reconstructor
p5
(canwp.war.regimentdata
RegimentData
p6
c__builtin__
object
p7
NtRp8
(dp9
S'A'
F0
sS'costIA'
p10
F144
sS'costEC'
p11
F0
sS'costAL'
p12
F0
sS'I'
F0
sS'defaultAttributes'
p13
(S'id'
p14
S'name'
p15
S'abr'
p16
S'costCR'
p17
S'costAL'
p18
S'costEC'
p19
S'costIA'
p20
S'techReq'
p21
S'description'
p22
S'power'
p23
S'L'
S'I'
S'M'
S'A'
tp24
sS'description'
p25
S'Heavy Plasma Infantry'
p26
sS'M'
F50
sS'L'
F50
sS'costCR'
p27
F5400
sS'power'
p28
F1000
sS'abr'
p29
S'HPI'
p30
sS'techReq'
p31
S'257'
p32
sS'id'
p33
g4
sS'name'
p34
S'Heavy Plasma Infantry'
p35
sbsS'25'
p36
g5
(g6
g7
NtRp37
(dp38
S'A'
F100
sg10
F0
sg11
F0
sg12
F270
sS'I'
F0
sg13
g24
sg25
S'Light Plasma Mechanized'
p39
sS'M'
F0
sS'L'
F25
sg27
F2700
sg28
F500
sg29
S'LPM'
p40
sg31
S'228'
p41
sg33
g36
sg34
S'Light Plasma Mechanized'
p42
sbsS'26'
p43
g5
(g6
g7
NtRp44
(dp45
S'A'
F100
sg10
F0
sg11
F0
sg12
F405
sS'I'
F0
sg13
g24
sg25
S'Medium Plasma Mechanized'
p46
sS'M'
F0
sS'L'
F25
sg27
F4050
sg28
F750
sg29
S'MPM'
p47
sg31
S'244'
p48
sg33
g43
sg34
S'Medium Plasma Mechanized'
p49
sbsS'27'
p50
g5
(g6
g7
NtRp51
(dp52
S'A'
F100
sg10
F0
sg11
F0
sg12
F540
sS'I'
F0
sg13
g24
sg25
S'Heavy Plasma Mechanized'
p53
sS'M'
F0
sS'L'
F25
sg27
F5400
sg28
F1000
sg29
S'HPM'
p54
sg31
S'258'
p55
sg33
g50
sg34
S'Heavy Plasma Mechanized'
p56
sbsS'20'
p57
g5
(g6
g7
NtRp58
(dp59
S'A'
F0
sg10
F0
sg11
F192
sg12
F0
sS'I'
F50
sg13
g24
sg25
S'Heavy Fusion Artillery'
p60
sS'M'
F0
sS'L'
F100
sg27
F3600
sg28
F600
sg29
S'HFA'
p61
sg31
S'159'
p62
sg33
g57
sg34
S'Heavy Fusion Artillery'
p63
sbsS'21'
p64
g5
(g6
g7
NtRp65
(dp66
S'A'
F0
sg10
F0
sg11
F0
sg12
F0
sS'I'
F0
sg13
g24
sg25
S'Plasma Militia'
p67
sS'M'
F0
sS'L'
F0
sg27
F0
sg28
F500
sg29
S'PML'
p68
sg31
S'201'
p69
sg33
g64
sg34
S'Plasma Militia'
p70
sbsS'22'
p71
g5
(g6
g7
NtRp72
(dp73
S'A'
F0
sg10
F72
sg11
F0
sg12
F0
sS'I'
F0
sg13
g24
sg25
S'Light Plasma Infantry'
p74
sS'M'
F50
sS'L'
F50
sg27
F2700
sg28
F500
sg29
S'LPI'
p75
sg31
S'227'
p76
sg33
g71
sg34
S'Light Plasma Infantry'
p77
sbsS'23'
p78
g5
(g6
g7
NtRp79
(dp80
S'A'
F0
sg10
F108
sg11
F0
sg12
F0
sS'I'
F0
sg13
g24
sg25
S'Medium Plasma Infantry'
p81
sS'M'
F50
sS'L'
F50
sg27
F4050
sg28
F750
sg29
S'MPI'
p82
sg31
S'243'
p83
sg33
g78
sg34
S'Medium Plasma Infantry'
p84
sbsS'28'
p85
g5
(g6
g7
NtRp86
(dp87
S'A'
F0
sg10
F0
sg11
F144
sg12
F0
sS'I'
F50
sg13
g24
sg25
S'Light Plasma Artillery'
p88
sS'M'
F0
sS'L'
F100
sg27
F2700
sg28
F500
sg29
S'LPA'
p89
sg31
S'229'
p90
sg33
g85
sg34
S'Light Plasma Artillery'
p91
sbsS'29'
p92
g5
(g6
g7
NtRp93
(dp94
S'A'
F0
sg10
F0
sg11
F216
sg12
F0
sS'I'
F50
sg13
g24
sg25
S'Medium Plasma Artillery'
p95
sS'M'
F0
sS'L'
F100
sg27
F4050
sg28
F750
sg29
S'MPA'
p96
sg31
S'245'
p97
sg33
g92
sg34
S'Medium Plasma Artillery'
p98
sbsS'1'
g5
(g6
g7
NtRp99
(dp100
S'A'
F0
sg10
F0
sg11
F0
sg12
F0
sS'I'
F0
sg13
g24
sg25
S'Nuclear Militia'
p101
sS'M'
F0
sS'L'
F0
sg27
F0
sg28
F100
sg29
S'NML'
p102
sg31
S'1'
sg33
S'1'
sg34
S'Nuclear Militia'
p103
sbsS'3'
g5
(g6
g7
NtRp104
(dp105
S'A'
F0
sg10
F36
sg11
F0
sg12
F0
sS'I'
F0
sg13
g24
sg25
S'Medium Nuclear Infantry'
p106
sS'M'
F50
sS'L'
F50
sg27
F1350
sg28
F150
sg29
S'MNI'
p107
sg31
S'43'
p108
sg33
S'3'
sg34
S'Medium Nuclear Infantry'
p109
sbsS'2'
g5
(g6
g7
NtRp110
(dp111
S'A'
F0
sg10
F24
sg11
F0
sg12
F0
sS'I'
F0
sg13
g24
sg25
S'Light Nuclear Infantry'
p112
sS'M'
F50
sS'L'
F50
sg27
F900
sg28
F100
sg29
S'LNI'
p113
sg31
S'27'
p114
sg33
S'2'
sg34
S'Light Nuclear Infantry'
p115
sbsS'5'
g5
(g6
g7
NtRp116
(dp117
S'A'
F100
sg10
F0
sg11
F0
sg12
F90
sS'I'
F0
sg13
g24
sg25
S'Light Nuclear Mechanized'
p118
sS'M'
F0
sS'L'
F25
sg27
F900
sg28
F100
sg29
S'LNM'
p119
sg31
S'28'
p120
sg33
S'5'
sg34
S'Light Nuclear Mechanized'
p121
sbsS'4'
g5
(g6
g7
NtRp122
(dp123
S'A'
F0
sg10
F48
sg11
F0
sg12
F0
sS'I'
F0
sg13
g24
sg25
S'Heavy Nuclear Infantry'
p124
sS'M'
F50
sS'L'
F50
sg27
F1800
sg28
F200
sg29
S'HNI'
p125
sg31
S'57'
p126
sg33
S'4'
sg34
S'Heavy Nuclear Infantry'
p127
sbsS'7'
g5
(g6
g7
NtRp128
(dp129
S'A'
F100
sg10
F0
sg11
F0
sg12
F180
sS'I'
F0
sg13
g24
sg25
S'Heavy Nuclear Mechanized'
p130
sS'M'
F0
sS'L'
F25
sg27
F1800
sg28
F200
sg29
S'HNM'
p131
sg31
S'58'
p132
sg33
S'7'
sg34
S'Heavy Nuclear Mechanized'
p133
sbsS'6'
g5
(g6
g7
NtRp134
(dp135
S'A'
F100
sg10
F0
sg11
F0
sg12
F135
sS'I'
F0
sg13
g24
sg25
S'Medium Nuclear Mechanized'
p136
sS'M'
F0
sS'L'
F25
sg27
F1350
sg28
F150
sg29
S'MNM'
p137
sg31
S'44'
p138
sg33
S'6'
sg34
S'Medium Nuclear Mechanized'
p139
sbsS'9'
g5
(g6
g7
NtRp140
(dp141
S'A'
F0
sg10
F0
sg11
F72
sg12
F0
sS'I'
F50
sg13
g24
sg25
S'Medium Nuclear Artillery'
p142
sS'M'
F0
sS'L'
F100
sg27
F1350
sg28
F150
sg29
S'MNA'
p143
sg31
S'45'
p144
sg33
S'9'
sg34
S'Medium Nuclear Artillery'
p145
sbsS'8'
g5
(g6
g7
NtRp146
(dp147
S'A'
F0
sg10
F0
sg11
F48
sg12
F0
sS'I'
F50
sg13
g24
sg25
S'Light Nuclear Artillery'
p148
sS'M'
F0
sS'L'
F100
sg27
F900
sg28
F100
sg29
S'LNA'
p149
sg31
S'29'
p150
sg33
S'8'
sg34
S'Light Nuclear Artillery'
p151
sbsS'11'
p152
g5
(g6
g7
NtRp153
(dp154
S'A'
F0
sg10
F0
sg11
F0
sg12
F0
sS'I'
F0
sg13
g24
sg25
S'Fusion Militia'
p155
sS'M'
F0
sS'L'
F0
sg27
F0
sg28
F300
sg29
S'FML'
p156
sg31
S'101'
p157
sg33
g152
sg34
S'Fusion Militia'
p158
sbsS'10'
p159
g5
(g6
g7
NtRp160
(dp161
S'A'
F0
sg10
F0
sg11
F96
sg12
F0
sS'I'
F50
sg13
g24
sg25
S'Heavy Nuclear Artillery'
p162
sS'M'
F0
sS'L'
F100
sg27
F1800
sg28
F200
sg29
S'HNA'
p163
sg31
S'59'
p164
sg33
g159
sg34
S'Heavy Nuclear Artillery'
p165
sbsS'13'
p166
g5
(g6
g7
NtRp167
(dp168
S'A'
F0
sg10
F72
sg11
F0
sg12
F0
sS'I'
F0
sg13
g24
sg25
S'Medium Fusion Infantry'
p169
sS'M'
F50
sS'L'
F50
sg27
F2700
sg28
F450
sg29
S'MFI'
p170
sg31
S'143'
p171
sg33
g166
sg34
S'Medium Fusion Infantry'
p172
sbsS'12'
p173
g5
(g6
g7
NtRp174
(dp175
S'A'
F0
sg10
F48
sg11
F0
sg12
F0
sS'I'
F0
sg13
g24
sg25
S'Light Fusion Infantry'
p176
sS'M'
F50
sS'L'
F50
sg27
F1800
sg28
F300
sg29
S'LFI'
p177
sg31
S'127'
p178
sg33
g173
sg34
S'Light Fusion Infantry'
p179
sbsS'15'
p180
g5
(g6
g7
NtRp181
(dp182
S'A'
F100
sg10
F0
sg11
F0
sg12
F180
sS'I'
F0
sg13
g24
sg25
S'Light Fusion Mechanized'
p183
sS'M'
F0
sS'L'
F25
sg27
F1800
sg28
F300
sg29
S'LFM'
p184
sg31
S'128'
p185
sg33
g180
sg34
S'Light Fusion Mechanized'
p186
sbsS'14'
p187
g5
(g6
g7
NtRp188
(dp189
S'A'
F0
sg10
F96
sg11
F0
sg12
F0
sS'I'
F0
sg13
g24
sg25
S'Heavy Fusion Infantry'
p190
sS'M'
F50
sS'L'
F50
sg27
F3600
sg28
F600
sg29
S'HFI'
p191
sg31
S'157'
p192
sg33
g187
sg34
S'Heavy Fusion Infantry'
p193
sbsS'17'
p194
g5
(g6
g7
NtRp195
(dp196
S'A'
F100
sg10
F0
sg11
F0
sg12
F360
sS'I'
F0
sg13
g24
sg25
S'Heavy Fusion Mechanized'
p197
sS'M'
F0
sS'L'
F25
sg27
F3600
sg28
F600
sg29
S'HFM'
p198
sg31
S'158'
p199
sg33
g194
sg34
S'Heavy Fusion Mechanized'
p200
sbsS'16'
p201
g5
(g6
g7
NtRp202
(dp203
S'A'
F100
sg10
F0
sg11
F0
sg12
F270
sS'I'
F0
sg13
g24
sg25
S'Medium Fusion Mechanized'
p204
sS'M'
F0
sS'L'
F25
sg27
F2700
sg28
F450
sg29
S'MFM'
p205
sg31
S'144'
p206
sg33
g201
sg34
S'Medium Fusion Mechanized'
p207
sbsS'19'
p208
g5
(g6
g7
NtRp209
(dp210
S'A'
F0
sg10
F0
sg11
F144
sg12
F0
sS'I'
F50
sg13
g24
sg25
S'Medium Fusion Artillery'
p211
sS'M'
F0
sS'L'
F100
sg27
F2700
sg28
F450
sg29
S'MFA'
p212
sg31
S'145'
p213
sg33
g208
sg34
S'Medium Fusion Artillery'
p214
sbsS'18'
p215
g5
(g6
g7
NtRp216
(dp217
S'A'
F0
sg10
F0
sg11
F96
sg12
F0
sS'I'
F50
sg13
g24
sg25
S'Light Fusion Artillery'
p218
sS'M'
F0
sS'L'
F100
sg27
F1800
sg28
F300
sg29
S'LFA'
p219
sg31
S'129'
p220
sg33
g215
sg34
S'Light Fusion Artillery'
p221
sbsS'30'
p222
g5
(g6
g7
NtRp223
(dp224
S'A'
F0
sg10
F0
sg11
F288
sg12
F0
sS'I'
F50
sg13
g24
sg25
S'Heavy Plasma Artillery'
p225
sS'M'
F0
sS'L'
F100
sg27
F5400
sg28
F1000
sg29
S'HPA'
p226
sg31
S'259'
p227
sg33
g222
sg34
S'Heavy Plasma Artillery'
p228
sbssS'industrydata'
p229
(dp230
S'42'
p231
g5
(canwp.aw.industrydata
IndustryData
p232
g7
NtRp233
(dp234
g10
F75
sg11
F150
sg12
F300
sg13
(S'id'
p235
S'name'
p236
S'abr'
p237
S'costCR'
p238
S'costAL'
p239
S'costEC'
p240
S'costIA'
p241
S'techReq'
p242
S'description'
p243
S'cities'
p244
S'output'
p245
tp246
sg25
S'Allows for 20 ships/trade routes to travel though gate per round'
p247
sg27
F3000
sg29
S'IWG'
p248
sS'cities'
p249
I1
sS'output'
p250
F20
sg31
S'226'
p251
sg33
g231
sg34
S'Intelligent Warp Gate'
p252
sbsS'43'
p253
g5
(g232
g7
NtRp254
(dp255
g10
F0
sg11
F0
sg12
F100
sg13
g246
sg25
S'Allows for 15 points of research per round'
p256
sg27
F1000
sg29
S'BRC'
p257
sg249
I1
sg250
F15
sg31
S'7'
sg33
g253
sg34
S'Basic Research Center'
p258
sbsS'24'
p259
g5
(g232
g7
NtRp260
(dp261
g10
F0
sg11
F0
sg12
F300
sg13
g246
sg25
S'Jams 30 Radar points'
p262
sg27
F3000
sg29
S'IJS'
p263
sg249
I1
sg250
F30
sg31
S'214'
p264
sg33
g259
sg34
S'Intelligent Jamming Station'
p265
sbsS'25'
p266
g5
(g232
g7
NtRp267
(dp268
g10
F0
sg11
F0
sg12
F200
sg13
g246
sg25
S'Provides 2 Nuclear Militia Regiments in defence'
p269
sg27
F2000
sg29
S'BMF'
p270
sg249
I2
sg250
F2
sg31
S'1'
sg33
g266
sg34
S'Basic Militia Fortress'
p271
sbsS'26'
p272
g5
(g232
g7
NtRp273
(dp274
g10
F0
sg11
F0
sg12
F300
sg13
g246
sg25
S'Provides 4 Fusion Militia Regiments in defence'
p275
sg27
F3000
sg29
S'AMF'
p276
sg249
I2
sg250
F4
sg31
S'101'
p277
sg33
g272
sg34
S'Advanced Militia Fortress'
p278
sbsS'27'
p279
g5
(g232
g7
NtRp280
(dp281
g10
F0
sg11
F0
sg12
F400
sg13
g246
sg25
S'Provides 6 Plasma Militia Regiments in defence'
p282
sg27
F4000
sg29
S'IMF'
p283
sg249
I2
sg250
F6
sg31
S'201'
p284
sg33
g279
sg34
S'Intelligent Militia Fortress'
p285
sbsS'20'
p286
g5
(g232
g7
NtRp287
(dp288
g10
F0
sg11
F0
sg12
F200
sg13
g246
sg25
S'Scans 20 Radar points to adjacent Systems'
p289
sg27
F2000
sg29
S'ARS'
p290
sg249
I1
sg250
F20
sg31
S'104'
p291
sg33
g286
sg34
S'Advanced Radar Station'
p292
sbsS'21'
p293
g5
(g232
g7
NtRp294
(dp295
g10
F0
sg11
F0
sg12
F300
sg13
g246
sg25
S'Scans 30 Radar points to adjacent Systems'
p296
sg27
F3000
sg29
S'IRS'
p297
sg249
I1
sg250
F30
sg31
S'204'
p298
sg33
g293
sg34
S'Intelligent Radar Station'
p299
sbsS'22'
p300
g5
(g232
g7
NtRp301
(dp302
g10
F0
sg11
F0
sg12
F100
sg13
g246
sg25
S'Jams 10 Radar points'
p303
sg27
F1000
sg29
S'BJS'
p304
sg249
I1
sg250
F10
sg31
S'14'
p305
sg33
g300
sg34
S'Basic Jamming Station'
p306
sbsS'23'
p307
g5
(g232
g7
NtRp308
(dp309
g10
F0
sg11
F0
sg12
F200
sg13
g246
sg25
S'Jams 20 Radar points'
p310
sg27
F2000
sg29
S'AJS'
p311
sg249
I1
sg250
F20
sg31
S'114'
p312
sg33
g307
sg34
S'Advanced Jamming Station'
p313
sbsS'44'
p314
g5
(g232
g7
NtRp315
(dp316
g10
F0
sg11
F0
sg12
F200
sg13
g246
sg25
S'Allows for 20 points of research per round'
p317
sg27
F2000
sg29
S'ARC'
p318
sg249
I1
sg250
F20
sg31
S'107'
p319
sg33
g314
sg34
S'Advanced Research Center'
p320
sbsS'45'
p321
g5
(g232
g7
NtRp322
(dp323
g10
F0
sg11
F0
sg12
F300
sg13
g246
sg25
S'Allows for 30 points of research per round'
p324
sg27
F3000
sg29
S'IRC'
p325
sg249
I1
sg250
F30
sg31
S'207'
p326
sg33
g321
sg34
S'Intelligent Research Center'
p327
sbsS'28'
p328
g5
(g232
g7
NtRp329
(dp330
g10
F0
sg11
F0
sg12
F100
sg13
g246
sg25
S'Trains 1 Starship Cadet per round'
p331
sg27
F1000
sg29
S'BFA'
p332
sg249
I1
sg250
F1
sg31
S'9'
sg33
g328
sg34
S'Basic Fleet Academy'
p333
sbsS'29'
p334
g5
(g232
g7
NtRp335
(dp336
g10
F0
sg11
F0
sg12
F200
sg13
g246
sg25
S'Trains 2 Starship Cadets per round'
p337
sg27
F2000
sg29
S'AFA'
p338
sg249
I1
sg250
F2
sg31
S'109'
p339
sg33
g334
sg34
S'Advanced Fleet Academy'
p340
sbsS'40'
p341
g5
(g232
g7
NtRp342
(dp343
g10
F25
sg11
F50
sg12
F100
sg13
g246
sg25
S'Allows for 5 ships/trade routes to travel though gate per round'
p344
sg27
F1000
sg29
S'BWG'
p345
sg249
I1
sg250
F5
sg31
S'26'
p346
sg33
g341
sg34
S'Basic Warp Gate'
p347
sbsS'41'
p348
g5
(g232
g7
NtRp349
(dp350
g10
F50
sg11
F100
sg12
F200
sg13
g246
sg25
S'Allows for 10 ships/trade routes to travel though gate per round'
p351
sg27
F2000
sg29
S'AWG'
p352
sg249
I1
sg250
F10
sg31
S'126'
p353
sg33
g348
sg34
S'Advanced Warp Gate'
p354
sbsS'1'
g5
(g232
g7
NtRp355
(dp356
g10
F0
sg11
F0
sg12
F100
sg13
g246
sg25
S'Adds 10% to total Planet Credit Production'
p357
sg27
F1000
sg29
S'BCC'
p358
sg249
I1
sg250
F0.10000000000000001
sg31
S'11'
p359
sg33
S'1'
sg34
S'Basic Credit Center'
p360
sbsS'3'
g5
(g232
g7
NtRp361
(dp362
g10
F0
sg11
F0
sg12
F300
sg13
g246
sg25
S'Adds 30% to total Planet Credit Production'
p363
sg27
F3000
sg29
S'ICC'
p364
sg249
I1
sg250
F0.29999999999999999
sg31
S'211'
p365
sg33
S'3'
sg34
S'Intelligent Credit Center'
p366
sbsS'2'
g5
(g232
g7
NtRp367
(dp368
g10
F0
sg11
F0
sg12
F200
sg13
g246
sg25
S'Adds 20% to total Planet Credit Production'
p369
sg27
F2000
sg29
S'ACC'
p370
sg249
I1
sg250
F0.20000000000000001
sg31
S'111'
p371
sg33
S'2'
sg34
S'Advanced Credit Center'
p372
sbsS'5'
g5
(g232
g7
NtRp373
(dp374
g10
F0
sg11
F0
sg12
F200
sg13
g246
sg25
S'Adds 20% to total Planet Alloy Production'
p375
sg27
F2000
sg29
S'AAF'
p376
sg249
I1
sg250
F0.20000000000000001
sg31
S'112'
p377
sg33
S'5'
sg34
S'Advanced Alloy Factory'
p378
sbsS'4'
g5
(g232
g7
NtRp379
(dp380
g10
F0
sg11
F0
sg12
F100
sg13
g246
sg25
S'Adds 10% to total Planet Alloy Production'
p381
sg27
F1000
sg29
S'BAF'
p382
sg249
I1
sg250
F0.10000000000000001
sg31
S'12'
p383
sg33
S'4'
sg34
S'Basic Alloy Factory'
p384
sbsS'7'
g5
(g232
g7
NtRp385
(dp386
g10
F0
sg11
F0
sg12
F100
sg13
g246
sg25
S'Adds 10% to total Planet Energy Crystal Production'
p387
sg27
F1000
sg29
S'BCM'
p388
sg249
I1
sg250
F0.10000000000000001
sg31
S'19'
p389
sg33
S'7'
sg34
S'Basic Crystal Mine'
p390
sbsS'6'
g5
(g232
g7
NtRp391
(dp392
g10
F0
sg11
F0
sg12
F300
sg13
g246
sg25
S'Adds 30% to total Planet Alloy Production'
p393
sg27
F3000
sg29
S'IAF'
p394
sg249
I1
sg250
F0.29999999999999999
sg31
S'212'
p395
sg33
S'6'
sg34
S'Intelligent Alloy Factory'
p396
sbsS'9'
g5
(g232
g7
NtRp397
(dp398
g10
F0
sg11
F0
sg12
F300
sg13
g246
sg25
S'Adds 30% to total Planet Energy Crystal Production'
p399
sg27
F3000
sg29
S'ICM'
p400
sg249
I1
sg250
F0.29999999999999999
sg31
S'219'
p401
sg33
S'9'
sg34
S'Intelligent Crystal Mine'
p402
sbsS'8'
g5
(g232
g7
NtRp403
(dp404
g10
F0
sg11
F0
sg12
F200
sg13
g246
sg25
S'Adds 20% to total Planet Energy Crystal Production'
p405
sg27
F2000
sg29
S'ACM'
p406
sg249
I1
sg250
F0.20000000000000001
sg31
S'119'
p407
sg33
S'8'
sg34
S'Advanced Crystal Mine'
p408
sbsS'39'
p409
g5
(g232
g7
NtRp410
(dp411
g10
F300
sg11
F600
sg12
F1200
sg13
g246
sg25
S'Allows for 600 Marine Points per round'
p412
sg27
F12000
sg29
S'IMI'
p413
sg249
I2
sg250
F600
sg31
S'217'
p414
sg33
g409
sg34
S'Intelligent Military Installation'
p415
sbsS'38'
p416
g5
(g232
g7
NtRp417
(dp418
g10
F200
sg11
F400
sg12
F800
sg13
g246
sg25
S'Allows for 400 Marine Points per round'
p419
sg27
F8000
sg29
S'AMI'
p420
sg249
I2
sg250
F400
sg31
S'117'
p421
sg33
g416
sg34
S'Advanced Military Installation'
p422
sbsS'11'
p423
g5
(g232
g7
NtRp424
(dp425
g10
F0
sg11
F0
sg12
F200
sg13
g246
sg25
S'Adds 20% to total Planet Intelligent Array Production'
p426
sg27
F2000
sg29
S'ASS'
p427
sg249
I1
sg250
F0.20000000000000001
sg31
S'130'
p428
sg33
g423
sg34
S'Advanced Synthetic System'
p429
sbsS'10'
p430
g5
(g232
g7
NtRp431
(dp432
g10
F0
sg11
F0
sg12
F100
sg13
g246
sg25
S'Adds 10% to total Planet Intelligent Array Production'
p433
sg27
F1000
sg29
S'BSS'
p434
sg249
I1
sg250
F0.10000000000000001
sg31
S'30'
p435
sg33
g430
sg34
S'Basic Synthetic System'
p436
sbsS'13'
p437
g5
(g232
g7
NtRp438
(dp439
g10
F0
sg11
F0
sg12
F100
sg13
g246
sg25
S'Allows 2 simulations to be run per round per center'
p440
sg27
F1000
sg29
S'BSC'
p441
sg249
I1
sg250
F2
sg31
S'5'
sg33
g437
sg34
S'Basic Simulation Center'
p442
sbsS'12'
p443
g5
(g232
g7
NtRp444
(dp445
g10
F0
sg11
F0
sg12
F300
sg13
g246
sg25
S'Adds 30% to total Planet Intelligent Array Production'
p446
sg27
F3000
sg29
S'ISS'
p447
sg249
I1
sg250
F0.29999999999999999
sg31
S'230'
p448
sg33
g443
sg34
S'Intelligent Synthetic System'
p449
sbsS'15'
p450
g5
(g232
g7
NtRp451
(dp452
g10
F0
sg11
F0
sg12
F300
sg13
g246
sg25
S'Allows 8 simulations to be run per round per center'
p453
sg27
F3000
sg29
S'ISC'
p454
sg249
I1
sg250
F8
sg31
S'205'
p455
sg33
g450
sg34
S'Intelligent Simulation Center'
p456
sbsS'14'
p457
g5
(g232
g7
NtRp458
(dp459
g10
F0
sg11
F0
sg12
F200
sg13
g246
sg25
S'Allows 4 simulations to be run per round per center'
p460
sg27
F2000
sg29
S'ASC'
p461
sg249
I1
sg250
F4
sg31
S'105'
p462
sg33
g457
sg34
S'Advanced Simulation Center'
p463
sbsS'17'
p464
g5
(g232
g7
NtRp465
(dp466
g10
F0
sg11
F0
sg12
F200
sg13
g246
sg25
S'Allows 2 starship design per round per center'
p467
sg27
F2000
sg29
S'ADC'
p468
sg249
I1
sg250
F2
sg31
S'103'
p469
sg33
g464
sg34
S'Advanced Design Center'
p470
sbsS'16'
p471
g5
(g232
g7
NtRp472
(dp473
g10
F0
sg11
F0
sg12
F100
sg13
g246
sg25
S'Allows 1 starship design per round per center'
p474
sg27
F1000
sg29
S'BDC'
p475
sg249
I1
sg250
F1
sg31
S'3'
sg33
g471
sg34
S'Basic Design Center'
p476
sbsS'19'
p477
g5
(g232
g7
NtRp478
(dp479
g10
F0
sg11
F0
sg12
F100
sg13
g246
sg25
S'Scans 10 Radar points to adjacent Systems'
p480
sg27
F1000
sg29
S'BRS'
p481
sg249
I1
sg250
F10
sg31
S'4'
sg33
g477
sg34
S'Basic Radar Station'
p482
sbsS'18'
p483
g5
(g232
g7
NtRp484
(dp485
g10
F0
sg11
F0
sg12
F300
sg13
g246
sg25
S'Allows 4 starship design per round per center'
p486
sg27
F3000
sg29
S'IDC'
p487
sg249
I1
sg250
F4
sg31
S'203'
p488
sg33
g483
sg34
S'Intelligent Design Center'
p489
sbsS'31'
p490
g5
(g232
g7
NtRp491
(dp492
g10
F0
sg11
F0
sg12
F100
sg13
g246
sg25
S'Trains up to 2 Marine Regiments per round'
p493
sg27
F1000
sg29
S'BMA'
p494
sg249
I1
sg250
F2
sg31
S'10'
p495
sg33
g490
sg34
S'Basic Marine Academy'
p496
sbsS'30'
p497
g5
(g232
g7
NtRp498
(dp499
g10
F0
sg11
F0
sg12
F300
sg13
g246
sg25
S'Trains 3 Starship Cadets per round'
p500
sg27
F3000
sg29
S'IFA'
p501
sg249
I1
sg250
F3
sg31
S'209'
p502
sg33
g497
sg34
S'Intelligent Fleet Academy'
p503
sbsS'37'
p504
g5
(g232
g7
NtRp505
(dp506
g10
F100
sg11
F200
sg12
F400
sg13
g246
sg25
S'Allows for 200 Marine Points per round'
p507
sg27
F4000
sg29
S'BMI'
p508
sg249
I2
sg250
F200
sg31
S'17'
p509
sg33
g504
sg34
S'Basic Military Installation'
p510
sbsS'36'
p511
g5
(g232
g7
NtRp512
(dp513
g10
F300
sg11
F600
sg12
F1200
sg13
g246
sg25
S'Allows for 768 slots worth of Starships to be constructed/repaired/upgraded'
p514
sg27
F12000
sg29
S'ISY'
p515
sg249
I2
sg250
F768
sg31
S'216'
p516
sg33
g511
sg34
S'Intelligent Shipyard'
p517
sbsS'35'
p518
g5
(g232
g7
NtRp519
(dp520
g10
F200
sg11
F400
sg12
F800
sg13
g246
sg25
S'Allows for 384 slots worth of Starships to be constructed/repaired/upgraded'
p521
sg27
F8000
sg29
S'ASY'
p522
sg249
I2
sg250
F384
sg31
S'116'
p523
sg33
g518
sg34
S'Advanced Shipyard'
p524
sbsS'34'
p525
g5
(g232
g7
NtRp526
(dp527
g10
F100
sg11
F200
sg12
F400
sg13
g246
sg25
S'Allows for 192 slots worth of Starships to be constructed/repaired/upgraded'
p528
sg27
F4000
sg29
S'BSY'
p529
sg249
I2
sg250
F192
sg31
S'16'
p530
sg33
g525
sg34
S'Basic Shipyard'
p531
sbsS'33'
p532
g5
(g232
g7
NtRp533
(dp534
g10
F0
sg11
F0
sg12
F300
sg13
g246
sg25
S'Trains up to 6 Marine Regiments per round'
p535
sg27
F3000
sg29
S'IMA'
p536
sg249
I1
sg250
F6
sg31
S'210'
p537
sg33
g532
sg34
S'Intelligent Marine Academy'
p538
sbsS'32'
p539
g5
(g232
g7
NtRp540
(dp541
g10
F0
sg11
F0
sg12
F200
sg13
g246
sg25
S'Trains up to 4 Marine Regiments per round'
p542
sg27
F2000
sg29
S'AMA'
p543
sg249
I1
sg250
F4
sg31
S'110'
p544
sg33
g539
sg34
S'Advanced Marine Academy'
p545
sbssS'componentdata'
p546
(dp547
S'56'
p548
g5
(canwp.war.componentdata
ComponentData
p549
g7
NtRp550
(dp551
S'repair'
p552
I0
sg11
F1
sg12
F3
sS'battery'
p553
I0
sS'typeAP'
p554
S''
sS'radar'
p555
I0
sS'maxHP'
p556
I50
sg33
g548
sS'maxAmmo'
p557
I36
sg10
F1
sg13
(S'id'
p558
S'name'
p559
S'abr'
p560
S'costCR'
p561
S'costAL'
p562
S'costEC'
p563
S'costIA'
p564
S'techReq'
p565
S'description'
p566
S'maxAmmo'
p567
S'explosive'
p568
S'storage'
p569
S'engine'
p570
S'rotate'
p571
S'power'
p572
S'battery'
p573
S'repair'
p574
S'target'
p575
S'radar'
p576
S'genSP'
p577
S'maxSP'
p578
S'typeAP'
p579
S'maxAP'
p580
S'maxHP'
p581
S'mass'
p582
S'jamming'
p583
tp584
sS'storage'
p585
I0
sg29
S'MNMA'
p586
sS'maxSP'
p587
I0
sg31
S'50'
p588
sS'jamming'
p589
I0
sS'engine'
p590
F0
sS'explosive'
p591
I1
sg25
S'test'
p592
sg28
I0
sS'maxAP'
p593
I0
sS'genSP'
p594
I0
sg34
S'Medium Nuclear Missile Ammo'
p595
sS'rotate'
p596
F0
sS'target'
p597
I0
sg27
F30
sS'mass'
p598
F1000
sbsS'54'
p599
g5
(g549
g7
NtRp600
(dp601
g552
I0
sg11
F0
sg12
F2
sg553
I0
sg554
S''
sg555
I0
sg556
I200
sg33
g599
sg557
I200
sg10
F0
sg13
g584
sg585
I0
sg29
S'ARGA'
p602
sg587
I0
sg31
S'274'
p603
sg589
I0
sg590
F0
sg591
I0
sg25
S'test'
p604
sg28
I0
sg593
I0
sg594
I0
sg34
S'AMS Rail Gun Ammo'
p605
sg596
F0
sg597
I0
sg27
F25
sg598
F800
sbsS'42'
p606
g5
(g549
g7
NtRp607
(dp608
g552
I0
sg11
F3
sg12
F4
sg553
I0
sg554
S''
sg555
I0
sg556
I200
sg33
g606
sg557
I48
sg10
F1
sg13
g584
sg585
I0
sg29
S'HPTA'
p609
sg587
I0
sg31
S'267'
p610
sg589
I0
sg590
F0
sg591
I1
sg25
S'test'
p611
sg28
I0
sg593
I0
sg594
I0
sg34
S'Heavy Plasma Torpedo Ammo'
p612
sg596
F0
sg597
I0
sg27
F40
sg598
F800
sbsS'48'
p613
g5
(g549
g7
NtRp614
(dp615
g552
I0
sg11
F1
sg12
F3
sg553
I0
sg554
S''
sg555
I0
sg556
I100
sg33
g613
sg557
I40
sg10
F0
sg13
g584
sg585
I0
sg29
S'MACA'
p616
sg587
I0
sg31
S'149'
p617
sg589
I0
sg590
F0
sg591
I0
sg25
S'test'
p618
sg28
I0
sg593
I0
sg594
I0
sg34
S'Medium Auto Cannon Ammo'
p619
sg596
F0
sg597
I0
sg27
F30
sg598
F900
sbsS'43'
p620
g5
(g549
g7
NtRp621
(dp622
g552
I0
sg11
F1
sg12
F2
sg553
I0
sg554
S''
sg555
I0
sg556
I50
sg33
g620
sg557
I64
sg10
F0
sg13
g584
sg585
I0
sg29
S'LGGA'
p623
sg587
I0
sg31
S'34'
p624
sg589
I0
sg590
F0
sg591
I0
sg25
S'test'
p625
sg28
I0
sg593
I0
sg594
I0
sg34
S'Light Graviton Gun Ammo'
p626
sg596
F0
sg597
I0
sg27
F20
sg598
F1000
sbsS'60'
p627
g5
(g549
g7
NtRp628
(dp629
g552
I0
sg11
F1
sg12
F4
sg553
I0
sg554
S''
sg555
I0
sg556
I100
sg33
g627
sg557
I24
sg10
F1
sg13
g584
sg585
I0
sg29
S'HFMA'
p630
sg587
I0
sg31
S'165'
p631
sg589
I0
sg590
F0
sg591
I1
sg25
S'test'
p632
sg28
I0
sg593
I0
sg594
I0
sg34
S'Heavy Fusion Missile Ammo'
p633
sg596
F0
sg597
I0
sg27
F40
sg598
F900
sbsS'61'
p634
g5
(g549
g7
NtRp635
(dp636
g552
I0
sg11
F1
sg12
F2
sg553
I0
sg554
S''
sg555
I0
sg556
I200
sg33
g634
sg557
I48
sg10
F1
sg13
g584
sg585
I0
sg29
S'LPMA'
p637
sg587
I0
sg31
S'235'
p638
sg589
I0
sg590
F0
sg591
I1
sg25
S'test'
p639
sg28
I0
sg593
I0
sg594
I0
sg34
S'Light Plasma Missile Ammo'
p640
sg596
F0
sg597
I0
sg27
F20
sg598
F800
sbsS'62'
p641
g5
(g549
g7
NtRp642
(dp643
g552
I0
sg11
F1
sg12
F3
sg553
I0
sg554
S''
sg555
I0
sg556
I200
sg33
g641
sg557
I36
sg10
F1
sg13
g584
sg585
I0
sg29
S'MPMA'
p644
sg587
I0
sg31
S'250'
p645
sg589
I0
sg590
F0
sg591
I1
sg25
S'test'
p646
sg28
I0
sg593
I0
sg594
I0
sg34
S'Medium Plasma Missile Ammo'
p647
sg596
F0
sg597
I0
sg27
F30
sg598
F800
sbsS'63'
p648
g5
(g549
g7
NtRp649
(dp650
g552
I0
sg11
F1
sg12
F4
sg553
I0
sg554
S''
sg555
I0
sg556
I200
sg33
g648
sg557
I24
sg10
F1
sg13
g584
sg585
I0
sg29
S'HPMA'
p651
sg587
I0
sg31
S'265'
p652
sg589
I0
sg590
F0
sg591
I1
sg25
S'test'
p653
sg28
I0
sg593
I0
sg594
I0
sg34
S'Heavy Plasma Missile Ammo'
p654
sg596
F0
sg597
I0
sg27
F40
sg598
F800
sbsS'64'
p655
g5
(g549
g7
NtRp656
(dp657
g552
I0
sg11
F0
sg12
F0
sg553
I0
sg554
S''
sg555
I0
sg556
I0
sg33
g655
sg557
I0
sg10
F0
sg13
g584
sg585
I0
sg29
S'WC'
p658
sg587
I0
sg31
S'999'
p659
sg589
I0
sg590
F0
sg591
I0
sg25
S'test'
p660
sg28
I0
sg593
I0
sg594
I0
sg34
S'Weapon Component'
p661
sg596
F0
sg597
I0
sg27
F0
sg598
F1000
sbsS'49'
p662
g5
(g549
g7
NtRp663
(dp664
g552
I0
sg11
F1
sg12
F4
sg553
I0
sg554
S''
sg555
I0
sg556
I100
sg33
g662
sg557
I32
sg10
F1
sg13
g584
sg585
I0
sg29
S'HACA'
p665
sg587
I0
sg31
S'164'
p666
sg589
I0
sg590
F0
sg591
I0
sg25
S'test'
p667
sg28
I0
sg593
I0
sg594
I0
sg34
S'Heavy Auto Cannon Ammo'
p668
sg596
F0
sg597
I0
sg27
F40
sg598
F900
sbsS'66'
p669
g5
(g549
g7
NtRp670
(dp671
g552
I0
sg11
F4
sg12
F10
sg553
I0
sg554
S''
sg555
I0
sg556
I100
sg33
g669
sg557
I0
sg10
F8
sg13
g584
sg585
I0
sg29
S'PJD'
p672
sg587
I0
sg31
S'176'
p673
sg589
I2
sg590
F0
sg591
I0
sg25
S'test'
p674
sg28
I0
sg593
I0
sg594
I0
sg34
S'Progressive Jamming Dishes'
p675
sg596
F0
sg597
I0
sg27
F200
sg598
F900
sbsS'67'
p676
g5
(g549
g7
NtRp677
(dp678
g552
I0
sg11
F6
sg12
F15
sg553
I0
sg554
S''
sg555
I0
sg556
I200
sg33
g676
sg557
I0
sg10
F12
sg13
g584
sg585
I0
sg29
S'UJD'
p679
sg587
I0
sg31
S'276'
p680
sg589
I3
sg590
F0
sg591
I0
sg25
S'test'
p681
sg28
I0
sg593
I0
sg594
I0
sg34
S'Ultra Jamming Dishes'
p682
sg596
F0
sg597
I0
sg27
F300
sg598
F800
sbsS'52'
p683
g5
(g549
g7
NtRp684
(dp685
g552
I0
sg11
F1
sg12
F3
sg553
I0
sg554
S''
sg555
I0
sg556
I200
sg33
g683
sg557
I40
sg10
F0
sg13
g584
sg585
I0
sg29
S'MRGA'
p686
sg587
I0
sg31
S'249'
p687
sg589
I0
sg590
F0
sg591
I0
sg25
S'test'
p688
sg28
I0
sg593
I0
sg594
I0
sg34
S'Medium Rail Gun Ammo'
p689
sg596
F0
sg597
I0
sg27
F30
sg598
F800
sbsS'53'
p690
g5
(g549
g7
NtRp691
(dp692
g552
I0
sg11
F1
sg12
F4
sg553
I0
sg554
S''
sg555
I0
sg556
I200
sg33
g690
sg557
I32
sg10
F1
sg13
g584
sg585
I0
sg29
S'HRGA'
p693
sg587
I0
sg31
S'264'
p694
sg589
I0
sg590
F0
sg591
I0
sg25
S'test'
p695
sg28
I0
sg593
I0
sg594
I0
sg34
S'Heavy Rail Gun Ammo'
p696
sg596
F0
sg597
I0
sg27
F40
sg598
F800
sbsS'24'
p697
g5
(g549
g7
NtRp698
(dp699
g552
I0
sg11
F0
sg12
F15
sg553
I0
sg554
S''
sg555
I0
sg556
I200
sg33
g697
sg557
I0
sg10
F6
sg13
g584
sg585
I5
sg29
S'UMP'
p700
sg587
I0
sg31
S'222'
p701
sg589
I0
sg590
F0
sg591
I0
sg25
S'test'
p702
sg28
I0
sg593
I0
sg594
I0
sg34
S'Ultra Marine Pods'
p703
sg596
F0
sg597
I0
sg27
F150
sg598
F800
sbsS'25'
p704
g5
(g549
g7
NtRp705
(dp706
g552
I0
sg11
F3
sg12
F2
sg553
I0
sg554
S''
sg555
I0
sg556
I50
sg33
g704
sg557
I0
sg10
F0
sg13
g584
sg585
I0
sg29
S'SSG'
p707
sg587
I100
sg31
S'70'
p708
sg589
I0
sg590
F0
sg591
I0
sg25
S'test'
p709
sg28
I0
sg593
I0
sg594
I1
sg34
S'Simple Shield Generators'
p710
sg596
F0
sg597
I0
sg27
F50
sg598
F1000
sbsS'26'
p711
g5
(g549
g7
NtRp712
(dp713
g552
I0
sg11
F5
sg12
F4
sg553
I0
sg554
S''
sg555
I0
sg556
I100
sg33
g711
sg557
I0
sg10
F0
sg13
g584
sg585
I0
sg29
S'PSG'
p714
sg587
I200
sg31
S'170'
p715
sg589
I0
sg590
F0
sg591
I0
sg25
S'test'
p716
sg28
I0
sg593
I0
sg594
I2
sg34
S'Progressive Shield Generators'
p717
sg596
F0
sg597
I0
sg27
F100
sg598
F900
sbsS'27'
p718
g5
(g549
g7
NtRp719
(dp720
g552
I0
sg11
F10
sg12
F6
sg553
I0
sg554
S''
sg555
I0
sg556
I200
sg33
g718
sg557
I0
sg10
F0
sg13
g584
sg585
I0
sg29
S'USG'
p721
sg587
I300
sg31
S'270'
p722
sg589
I0
sg590
F0
sg591
I0
sg25
S'test'
p723
sg28
I0
sg593
I0
sg594
I3
sg34
S'Ultra Shield Generators'
p724
sg596
F0
sg597
I0
sg27
F150
sg598
F800
sbsS'20'
p725
g5
(g549
g7
NtRp726
(dp727
g552
I0
sg11
F4
sg12
F4
sg553
I0
sg554
S''
sg555
I2
sg556
I100
sg33
g725
sg557
I0
sg10
F2
sg13
g584
sg585
I0
sg29
S'PRS'
p728
sg587
I0
sg31
S'142'
p729
sg589
I0
sg590
F0
sg591
I0
sg25
S'test'
p730
sg28
I0
sg593
I0
sg594
I0
sg34
S'Progressive Radar Scanners'
p731
sg596
F0
sg597
I0
sg27
F100
sg598
F900
sbsS'21'
p732
g5
(g549
g7
NtRp733
(dp734
g552
I0
sg11
F6
sg12
F6
sg553
I0
sg554
S''
sg555
I3
sg556
I200
sg33
g732
sg557
I0
sg10
F3
sg13
g584
sg585
I0
sg29
S'URS'
p735
sg587
I0
sg31
S'242'
p736
sg589
I0
sg590
F0
sg591
I0
sg25
S'test'
p737
sg28
I0
sg593
I0
sg594
I0
sg34
S'Ultra Radar Scanners'
p738
sg596
F0
sg597
I0
sg27
F150
sg598
F800
sbsS'22'
p739
g5
(g549
g7
NtRp740
(dp741
g552
I0
sg11
F0
sg12
F5
sg553
I0
sg554
S''
sg555
I0
sg556
I50
sg33
g739
sg557
I0
sg10
F2
sg13
g584
sg585
I1
sg29
S'SMP'
p742
sg587
I0
sg31
S'22'
p743
sg589
I0
sg590
F0
sg591
I0
sg25
S'test'
p744
sg28
I0
sg593
I0
sg594
I0
sg34
S'Simple Marine Pods'
p745
sg596
F0
sg597
I0
sg27
F50
sg598
F1000
sbsS'23'
p746
g5
(g549
g7
NtRp747
(dp748
g552
I0
sg11
F0
sg12
F10
sg553
I0
sg554
S''
sg555
I0
sg556
I100
sg33
g746
sg557
I0
sg10
F4
sg13
g584
sg585
I2
sg29
S'PMP'
p749
sg587
I0
sg31
S'122'
p750
sg589
I0
sg590
F0
sg591
I0
sg25
S'test'
p751
sg28
I0
sg593
I0
sg594
I0
sg34
S'Progressive Marine Pods'
p752
sg596
F0
sg597
I0
sg27
F100
sg598
F900
sbsS'46'
p753
g5
(g549
g7
NtRp754
(dp755
g552
I0
sg11
F0
sg12
F2
sg553
I0
sg554
S''
sg555
I0
sg556
I50
sg33
g753
sg557
I200
sg10
F0
sg13
g584
sg585
I0
sg29
S'AGGA'
p756
sg587
I0
sg31
S'72'
p757
sg589
I0
sg590
F0
sg591
I0
sg25
S'test'
p758
sg28
I0
sg593
I0
sg594
I0
sg34
S'AMS Graviton Gun Ammo'
p759
sg596
F0
sg597
I0
sg27
F25
sg598
F1000
sbsS'47'
p760
g5
(g549
g7
NtRp761
(dp762
g552
I0
sg11
F1
sg12
F2
sg553
I0
sg554
S''
sg555
I0
sg556
I100
sg33
g760
sg557
I64
sg10
F0
sg13
g584
sg585
I0
sg29
S'LACA'
p763
sg587
I0
sg31
S'134'
p764
sg589
I0
sg590
F0
sg591
I0
sg25
S'test'
p765
sg28
I0
sg593
I0
sg594
I0
sg34
S'Light Auto Cannon Ammo'
p766
sg596
F0
sg597
I0
sg27
F20
sg598
F900
sbsS'44'
p767
g5
(g549
g7
NtRp768
(dp769
g552
I0
sg11
F1
sg12
F3
sg553
I0
sg554
S''
sg555
I0
sg556
I50
sg33
g767
sg557
I40
sg10
F0
sg13
g584
sg585
I0
sg29
S'MGGA'
p770
sg587
I0
sg31
S'49'
p771
sg589
I0
sg590
F0
sg591
I0
sg25
S'test'
p772
sg28
I0
sg593
I0
sg594
I0
sg34
S'Medium Graviton Gun Ammo'
p773
sg596
F0
sg597
I0
sg27
F30
sg598
F1000
sbsS'45'
p774
g5
(g549
g7
NtRp775
(dp776
g552
I0
sg11
F1
sg12
F4
sg553
I0
sg554
S''
sg555
I0
sg556
I50
sg33
g774
sg557
I32
sg10
F1
sg13
g584
sg585
I0
sg29
S'HGGA'
p777
sg587
I0
sg31
S'64'
p778
sg589
I0
sg590
F0
sg591
I0
sg25
S'test'
p779
sg28
I0
sg593
I0
sg594
I0
sg34
S'Heavy Graviton Gun Ammo'
p780
sg596
F0
sg597
I0
sg27
F40
sg598
F1000
sbsS'28'
p781
g5
(g549
g7
NtRp782
(dp783
g552
I0
sg11
F0
sg12
F5
sg553
I0
sg554
S'energy'
p784
sg555
I0
sg556
I50
sg33
g781
sg557
I0
sg10
F0
sg13
g584
sg585
I0
sg29
S'SRA'
p785
sg587
I0
sg31
S'69'
p786
sg589
I0
sg590
F0
sg591
I0
sg25
S'test'
p787
sg28
I0
sg593
I200
sg594
I0
sg34
S'Simple Reflective Armor'
p788
sg596
F0
sg597
I0
sg27
F50
sg598
F1000
sbsS'29'
p789
g5
(g549
g7
NtRp790
(dp791
g552
I0
sg11
F0
sg12
F10
sg553
I0
sg554
S'energy'
p792
sg555
I0
sg556
I100
sg33
g789
sg557
I0
sg10
F0
sg13
g584
sg585
I0
sg29
S'PRA'
p793
sg587
I0
sg31
S'169'
p794
sg589
I0
sg590
F0
sg591
I0
sg25
S'test'
p795
sg28
I0
sg593
I400
sg594
I0
sg34
S'Progressive Reflective Armor'
p796
sg596
F0
sg597
I0
sg27
F100
sg598
F900
sbsS'40'
p797
g5
(g549
g7
NtRp798
(dp799
g552
I0
sg11
F1
sg12
F2
sg553
I0
sg554
S''
sg555
I0
sg556
I200
sg33
g797
sg557
I96
sg10
F1
sg13
g584
sg585
I0
sg29
S'LPTA'
p800
sg587
I0
sg31
S'237'
p801
sg589
I0
sg590
F0
sg591
I1
sg25
S'test'
p802
sg28
I0
sg593
I0
sg594
I0
sg34
S'Light Plasma Torpedo Ammo'
p803
sg596
F0
sg597
I0
sg27
F20
sg598
F800
sbsS'41'
p804
g5
(g549
g7
NtRp805
(dp806
g552
I0
sg11
F2
sg12
F3
sg553
I0
sg554
S''
sg555
I0
sg556
I200
sg33
g804
sg557
I72
sg10
F1
sg13
g584
sg585
I0
sg29
S'MPTA'
p807
sg587
I0
sg31
S'252'
p808
sg589
I0
sg590
F0
sg591
I1
sg25
S'test'
p809
sg28
I0
sg593
I0
sg594
I0
sg34
S'Medium Plasma Torpedo Ammo'
p810
sg596
F0
sg597
I0
sg27
F30
sg598
F800
sbsS'1'
g5
(g549
g7
NtRp811
(dp812
g552
I0
sg11
F2
sg12
F5
sg553
I0
sg554
S''
sg555
I0
sg556
I50
sg33
S'1'
sg557
I0
sg10
F0
sg13
g584
sg585
I0
sg29
S'SSE'
p813
sg587
I0
sg31
S'39'
p814
sg589
I0
sg590
F10
sg591
I0
sg25
S'test'
p815
sg28
I0
sg593
I0
sg594
I0
sg34
S'Simple StarShip Engines'
p816
sg596
F0
sg597
I0
sg27
F50
sg598
F1000
sbsS'3'
g5
(g549
g7
NtRp817
(dp818
g552
I0
sg11
F10
sg12
F15
sg553
I0
sg554
S''
sg555
I0
sg556
I200
sg33
S'3'
sg557
I0
sg10
F0
sg13
g584
sg585
I0
sg29
S'USE'
p819
sg587
I0
sg31
S'239'
p820
sg589
I0
sg590
F20
sg591
I0
sg25
S'test'
p821
sg28
I0
sg593
I0
sg594
I0
sg34
S'Ultra StarShip Engines'
p822
sg596
F0
sg597
I0
sg27
F150
sg598
F800
sbsS'2'
g5
(g549
g7
NtRp823
(dp824
g552
I0
sg11
F5
sg12
F10
sg553
I0
sg554
S''
sg555
I0
sg556
I100
sg33
S'2'
sg557
I0
sg10
F0
sg13
g584
sg585
I0
sg29
S'PSE'
p825
sg587
I0
sg31
S'139'
p826
sg589
I0
sg590
F16
sg591
I0
sg25
S'test'
p827
sg28
I0
sg593
I0
sg594
I0
sg34
S'Progressive StarShip Engines'
p828
sg596
F0
sg597
I0
sg27
F100
sg598
F900
sbsS'5'
g5
(g549
g7
NtRp829
(dp830
g552
I0
sg11
F5
sg12
F10
sg553
I0
sg554
S''
sg555
I0
sg556
I100
sg33
S'5'
sg557
I0
sg10
F0
sg13
g584
sg585
I0
sg29
S'PRT'
p831
sg587
I0
sg31
S'140'
p832
sg589
I0
sg590
F0
sg591
I0
sg25
S'test'
p833
sg28
I0
sg593
I0
sg594
I0
sg34
S'Progressive Rotation Thrusters'
p834
sg596
F15
sg597
I0
sg27
F100
sg598
F900
sbsS'4'
g5
(g549
g7
NtRp835
(dp836
g552
I0
sg11
F2
sg12
F5
sg553
I0
sg554
S''
sg555
I0
sg556
I50
sg33
S'4'
sg557
I0
sg10
F0
sg13
g584
sg585
I0
sg29
S'SRT'
p837
sg587
I0
sg31
S'40'
p838
sg589
I0
sg590
F0
sg591
I0
sg25
S'test'
p839
sg28
I0
sg593
I0
sg594
I0
sg34
S'Simple Rotation Thrusters'
p840
sg596
F8
sg597
I0
sg27
F50
sg598
F1000
sbsS'7'
g5
(g549
g7
NtRp841
(dp842
g552
I0
sg11
F3
sg12
F5
sg553
I0
sg554
S''
sg555
I0
sg556
I50
sg33
S'7'
sg557
I0
sg10
F0
sg13
g584
sg585
I0
sg29
S'SPP'
p843
sg587
I0
sg31
S'41'
p844
sg589
I0
sg590
F0
sg591
I50
sg25
S'test'
p845
sg28
I50
sg593
I0
sg594
I0
sg34
S'Simple Power Plant'
p846
sg596
F0
sg597
I0
sg27
F50
sg598
F1000
sbsS'6'
g5
(g549
g7
NtRp847
(dp848
g552
I0
sg11
F10
sg12
F15
sg553
I0
sg554
S''
sg555
I0
sg556
I200
sg33
S'6'
sg557
I0
sg10
F0
sg13
g584
sg585
I0
sg29
S'URT'
p849
sg587
I0
sg31
S'240'
p850
sg589
I0
sg590
F0
sg591
I0
sg25
S'test'
p851
sg28
I0
sg593
I0
sg594
I0
sg34
S'Ultra Rotation Thrusters'
p852
sg596
F25
sg597
I0
sg27
F150
sg598
F800
sbsS'9'
g5
(g549
g7
NtRp853
(dp854
g552
I0
sg11
F10
sg12
F15
sg553
I0
sg554
S''
sg555
I0
sg556
I200
sg33
S'9'
sg557
I0
sg10
F0
sg13
g584
sg585
I0
sg29
S'UPP'
p855
sg587
I0
sg31
S'241'
p856
sg589
I0
sg590
F0
sg591
I200
sg25
S'test'
p857
sg28
I200
sg593
I0
sg594
I0
sg34
S'Ultra Power Plant'
p858
sg596
F0
sg597
I0
sg27
F150
sg598
F800
sbsS'8'
g5
(g549
g7
NtRp859
(dp860
g552
I0
sg11
F5
sg12
F10
sg553
I0
sg554
S''
sg555
I0
sg556
I100
sg33
S'8'
sg557
I0
sg10
F0
sg13
g584
sg585
I0
sg29
S'PPP'
p861
sg587
I0
sg31
S'141'
p862
sg589
I0
sg590
F0
sg591
I100
sg25
S'test'
p863
sg28
I100
sg593
I0
sg594
I0
sg34
S'Progressive Power Plant'
p864
sg596
F0
sg597
I0
sg27
F100
sg598
F900
sbsS'51'
p865
g5
(g549
g7
NtRp866
(dp867
g552
I0
sg11
F1
sg12
F2
sg553
I0
sg554
S''
sg555
I0
sg556
I200
sg33
g865
sg557
I64
sg10
F0
sg13
g584
sg585
I0
sg29
S'LRGA'
p868
sg587
I0
sg31
S'234'
p869
sg589
I0
sg590
F0
sg591
I0
sg25
S'test'
p870
sg28
I0
sg593
I0
sg594
I0
sg34
S'Light Rail Gun Ammo'
p871
sg596
F0
sg597
I0
sg27
F20
sg598
F800
sbsS'39'
p872
g5
(g549
g7
NtRp873
(dp874
g552
I0
sg11
F3
sg12
F4
sg553
I0
sg554
S''
sg555
I0
sg556
I100
sg33
g872
sg557
I48
sg10
F1
sg13
g584
sg585
I0
sg29
S'HFTA'
p875
sg587
I0
sg31
S'167'
p876
sg589
I0
sg590
F0
sg591
I1
sg25
S'test'
p877
sg28
I0
sg593
I0
sg594
I0
sg34
S'Heavy Fusion Torpedo Ammo'
p878
sg596
F0
sg597
I0
sg27
F40
sg598
F900
sbsS'65'
p879
g5
(g549
g7
NtRp880
(dp881
g552
I0
sg11
F2
sg12
F5
sg553
I0
sg554
S''
sg555
I0
sg556
I50
sg33
g879
sg557
I0
sg10
F4
sg13
g584
sg585
I0
sg29
S'SJD'
p882
sg587
I0
sg31
S'76'
p883
sg589
I1
sg590
F0
sg591
I0
sg25
S'test'
p884
sg28
I0
sg593
I0
sg594
I0
sg34
S'Simple Jamming Dishes'
p885
sg596
F0
sg597
I0
sg27
F100
sg598
F1000
sbsS'38'
p886
g5
(g549
g7
NtRp887
(dp888
g552
I0
sg11
F2
sg12
F3
sg553
I0
sg554
S''
sg555
I0
sg556
I100
sg33
g886
sg557
I72
sg10
F1
sg13
g584
sg585
I0
sg29
S'MFTA'
p889
sg587
I0
sg31
S'152'
p890
sg589
I0
sg590
F0
sg591
I1
sg25
S'test'
p891
sg28
I0
sg593
I0
sg594
I0
sg34
S'Medium Fusion Torpedo Ammo'
p892
sg596
F0
sg597
I0
sg27
F30
sg598
F900
sbsS'59'
p893
g5
(g549
g7
NtRp894
(dp895
g552
I0
sg11
F1
sg12
F3
sg553
I0
sg554
S''
sg555
I0
sg556
I100
sg33
g893
sg557
I36
sg10
F1
sg13
g584
sg585
I0
sg29
S'MFMA'
p896
sg587
I0
sg31
S'150'
p897
sg589
I0
sg590
F0
sg591
I1
sg25
S'test'
p898
sg28
I0
sg593
I0
sg594
I0
sg34
S'Medium Fusion Missile Ammo'
p899
sg596
F0
sg597
I0
sg27
F30
sg598
F900
sbsS'58'
p900
g5
(g549
g7
NtRp901
(dp902
g552
I0
sg11
F1
sg12
F2
sg553
I0
sg554
S''
sg555
I0
sg556
I100
sg33
g900
sg557
I48
sg10
F1
sg13
g584
sg585
I0
sg29
S'LFMA'
p903
sg587
I0
sg31
S'135'
p904
sg589
I0
sg590
F0
sg591
I1
sg25
S'test'
p905
sg28
I0
sg593
I0
sg594
I0
sg34
S'Light Fusion Missile Ammo'
p906
sg596
F0
sg597
I0
sg27
F20
sg598
F900
sbsS'11'
p907
g5
(g549
g7
NtRp908
(dp909
g552
I0
sg11
F5
sg12
F10
sg553
I500
sg554
S''
sg555
I0
sg556
I100
sg33
g907
sg557
I0
sg10
F0
sg13
g584
sg585
I0
sg29
S'PEB'
p910
sg587
I0
sg31
S'156'
p911
sg589
I0
sg590
F0
sg591
I0
sg25
S'test'
p912
sg28
I0
sg593
I0
sg594
I0
sg34
S'Progressive Energy Batteries'
p913
sg596
F0
sg597
I0
sg27
F100
sg598
F900
sbsS'10'
p914
g5
(g549
g7
NtRp915
(dp916
g552
I0
sg11
F3
sg12
F5
sg553
I250
sg554
S''
sg555
I0
sg556
I50
sg33
g914
sg557
I0
sg10
F0
sg13
g584
sg585
I0
sg29
S'SEB'
p917
sg587
I0
sg31
S'56'
p918
sg589
I0
sg590
F0
sg591
I0
sg25
S'test'
p919
sg28
I0
sg593
I0
sg594
I0
sg34
S'Simple Energy Batteries'
p920
sg596
F0
sg597
I0
sg27
F50
sg598
F1000
sbsS'13'
p921
g5
(g549
g7
NtRp922
(dp923
g552
I2
sg11
F3
sg12
F5
sg553
I0
sg554
S''
sg555
I0
sg556
I50
sg33
g921
sg557
I0
sg10
F2
sg13
g584
sg585
I0
sg29
S'SES'
p924
sg587
I0
sg31
S'55'
p925
sg589
I0
sg590
F0
sg591
I0
sg25
S'test'
p926
sg28
I0
sg593
I0
sg594
I0
sg34
S'Simple Engineering Stations'
p927
sg596
F0
sg597
I0
sg27
F50
sg598
F1000
sbsS'12'
p928
g5
(g549
g7
NtRp929
(dp930
g552
I0
sg11
F10
sg12
F15
sg553
I1000
sg554
S''
sg555
I0
sg556
I200
sg33
g928
sg557
I0
sg10
F0
sg13
g584
sg585
I0
sg29
S'UEB'
p931
sg587
I0
sg31
S'256'
p932
sg589
I0
sg590
F0
sg591
I0
sg25
S'test'
p933
sg28
I0
sg593
I0
sg594
I0
sg34
S'Ultra Energy Batteries'
p934
sg596
F0
sg597
I0
sg27
F150
sg598
F800
sbsS'15'
p935
g5
(g549
g7
NtRp936
(dp937
g552
I8
sg11
F9
sg12
F15
sg553
I0
sg554
S''
sg555
I0
sg556
I200
sg33
g935
sg557
I0
sg10
F6
sg13
g584
sg585
I0
sg29
S'UES'
p938
sg587
I0
sg31
S'255'
p939
sg589
I0
sg590
F0
sg591
I0
sg25
S'test'
p940
sg28
I0
sg593
I0
sg594
I0
sg34
S'Ultra Engineering Stations'
p941
sg596
F0
sg597
I0
sg27
F150
sg598
F800
sbsS'14'
p942
g5
(g549
g7
NtRp943
(dp944
g552
I4
sg11
F6
sg12
F10
sg553
I0
sg554
S''
sg555
I0
sg556
I100
sg33
g942
sg557
I0
sg10
F4
sg13
g584
sg585
I0
sg29
S'PES'
p945
sg587
I0
sg31
S'155'
p946
sg589
I0
sg590
F0
sg591
I0
sg25
S'test'
p947
sg28
I0
sg593
I0
sg594
I0
sg34
S'Progressive Engineering Stations'
p948
sg596
F0
sg597
I0
sg27
F100
sg598
F900
sbsS'17'
p949
g5
(g549
g7
NtRp950
(dp951
g552
I0
sg11
F4
sg12
F4
sg553
I0
sg554
S''
sg555
I0
sg556
I100
sg33
g949
sg557
I0
sg10
F4
sg13
g584
sg585
I0
sg29
S'PTC'
p952
sg587
I0
sg31
S'171'
p953
sg589
I0
sg590
F0
sg591
I0
sg25
S'test'
p954
sg28
I0
sg593
I0
sg594
I0
sg34
S'Progressive Targeting Computers'
p955
sg596
F0
sg597
I10
sg27
F100
sg598
F900
sbsS'16'
p956
g5
(g549
g7
NtRp957
(dp958
g552
I0
sg11
F2
sg12
F2
sg553
I0
sg554
S''
sg555
I0
sg556
I50
sg33
g956
sg557
I0
sg10
F2
sg13
g584
sg585
I0
sg29
S'STC'
p959
sg587
I0
sg31
S'71'
p960
sg589
I0
sg590
F0
sg591
I0
sg25
S'test'
p961
sg28
I0
sg593
I0
sg594
I0
sg34
S'Simple Targeting Computers'
p962
sg596
F0
sg597
I5
sg27
F50
sg598
F1000
sbsS'19'
p963
g5
(g549
g7
NtRp964
(dp965
g552
I0
sg11
F2
sg12
F2
sg553
I0
sg554
S''
sg555
I1
sg556
I50
sg33
g963
sg557
I0
sg10
F1
sg13
g584
sg585
I0
sg29
S'SRS'
p966
sg587
I0
sg31
S'42'
p967
sg589
I0
sg590
F0
sg591
I0
sg25
S'test'
p968
sg28
I0
sg593
I0
sg594
I0
sg34
S'Simple Radar Scanners'
p969
sg596
F0
sg597
I0
sg27
F50
sg598
F1000
sbsS'18'
p970
g5
(g549
g7
NtRp971
(dp972
g552
I0
sg11
F6
sg12
F6
sg553
I0
sg554
S''
sg555
I0
sg556
I200
sg33
g970
sg557
I0
sg10
F6
sg13
g584
sg585
I0
sg29
S'UTC'
p973
sg587
I0
sg31
S'271'
p974
sg589
I0
sg590
F0
sg591
I0
sg25
S'test'
p975
sg28
I0
sg593
I0
sg594
I0
sg34
S'Ultra Targeting Computers'
p976
sg596
F0
sg597
I15
sg27
F150
sg598
F800
sbsS'31'
p977
g5
(g549
g7
NtRp978
(dp979
g552
I0
sg11
F0
sg12
F5
sg553
I0
sg554
S'impact'
p980
sg555
I0
sg556
I50
sg33
g977
sg557
I0
sg10
F0
sg13
g584
sg585
I0
sg29
S'SIA'
p981
sg587
I0
sg31
S'68'
p982
sg589
I0
sg590
F0
sg591
I0
sg25
S'test'
p983
sg28
I0
sg593
I200
sg594
I0
sg34
S'Simple Impact Armor'
p984
sg596
F0
sg597
I0
sg27
F50
sg598
F1000
sbsS'30'
p985
g5
(g549
g7
NtRp986
(dp987
g552
I0
sg11
F0
sg12
F15
sg553
I0
sg554
S'energy'
p988
sg555
I0
sg556
I200
sg33
g985
sg557
I0
sg10
F0
sg13
g584
sg585
I0
sg29
S'URA'
p989
sg587
I0
sg31
S'269'
p990
sg589
I0
sg590
F0
sg591
I0
sg25
S'test'
p991
sg28
I0
sg593
I600
sg594
I0
sg34
S'Ultra Reflective Armor'
p992
sg596
F0
sg597
I0
sg27
F150
sg598
F800
sbsS'37'
p993
g5
(g549
g7
NtRp994
(dp995
g552
I0
sg11
F1
sg12
F2
sg553
I0
sg554
S''
sg555
I0
sg556
I100
sg33
g993
sg557
I96
sg10
F1
sg13
g584
sg585
I0
sg29
S'LFTA'
p996
sg587
I0
sg31
S'137'
p997
sg589
I0
sg590
F0
sg591
I1
sg25
S'test'
p998
sg28
I0
sg593
I0
sg594
I0
sg34
S'Light Fusion Torpedo Ammo'
p999
sg596
F0
sg597
I0
sg27
F20
sg598
F900
sbsS'36'
p1000
g5
(g549
g7
NtRp1001
(dp1002
g552
I0
sg11
F3
sg12
F4
sg553
I0
sg554
S''
sg555
I0
sg556
I50
sg33
g1000
sg557
I48
sg10
F1
sg13
g584
sg585
I0
sg29
S'HNTA'
p1003
sg587
I0
sg31
S'67'
p1004
sg589
I0
sg590
F0
sg591
I1
sg25
S'test'
p1005
sg28
I0
sg593
I0
sg594
I0
sg34
S'Heavy Nuclear Torpedo Ammo'
p1006
sg596
F0
sg597
I0
sg27
F40
sg598
F1000
sbsS'35'
p1007
g5
(g549
g7
NtRp1008
(dp1009
g552
I0
sg11
F2
sg12
F3
sg553
I0
sg554
S''
sg555
I0
sg556
I50
sg33
g1007
sg557
I72
sg10
F1
sg13
g584
sg585
I0
sg29
S'MNTA'
p1010
sg587
I0
sg31
S'52'
p1011
sg589
I0
sg590
F0
sg591
I1
sg25
S'test'
p1012
sg28
I0
sg593
I0
sg594
I0
sg34
S'Medium Nuclear Torpedo Ammo'
p1013
sg596
F0
sg597
I0
sg27
F30
sg598
F1000
sbsS'34'
p1014
g5
(g549
g7
NtRp1015
(dp1016
g552
I0
sg11
F1
sg12
F2
sg553
I0
sg554
S''
sg555
I0
sg556
I50
sg33
g1014
sg557
I96
sg10
F1
sg13
g584
sg585
I0
sg29
S'LNTA'
p1017
sg587
I0
sg31
S'37'
p1018
sg589
I0
sg590
F0
sg591
I1
sg25
S'test'
p1019
sg28
I0
sg593
I0
sg594
I0
sg34
S'Light Nuclear Torpedo Ammo'
p1020
sg596
F0
sg597
I0
sg27
F20
sg598
F1000
sbsS'33'
p1021
g5
(g549
g7
NtRp1022
(dp1023
g552
I0
sg11
F0
sg12
F15
sg553
I0
sg554
S'impact'
p1024
sg555
I0
sg556
I200
sg33
g1021
sg557
I0
sg10
F0
sg13
g584
sg585
I0
sg29
S'UIA'
p1025
sg587
I0
sg31
S'268'
p1026
sg589
I0
sg590
F0
sg591
I0
sg25
S'test'
p1027
sg28
I0
sg593
I600
sg594
I0
sg34
S'Ultra Impact Armor'
p1028
sg596
F0
sg597
I0
sg27
F150
sg598
F800
sbsS'55'
p1029
g5
(g549
g7
NtRp1030
(dp1031
g552
I0
sg11
F1
sg12
F2
sg553
I0
sg554
S''
sg555
I0
sg556
I50
sg33
g1029
sg557
I48
sg10
F1
sg13
g584
sg585
I0
sg29
S'LNMA'
p1032
sg587
I0
sg31
S'35'
p1033
sg589
I0
sg590
F0
sg591
I1
sg25
S'test'
p1034
sg28
I0
sg593
I0
sg594
I0
sg34
S'Light Nuclear Missile Ammo'
p1035
sg596
F0
sg597
I0
sg27
F20
sg598
F1000
sbsS'32'
p1036
g5
(g549
g7
NtRp1037
(dp1038
g552
I0
sg11
F0
sg12
F10
sg553
I0
sg554
S'impact'
p1039
sg555
I0
sg556
I100
sg33
g1036
sg557
I0
sg10
F0
sg13
g584
sg585
I0
sg29
S'PIA'
p1040
sg587
I0
sg31
S'168'
p1041
sg589
I0
sg590
F0
sg591
I0
sg25
S'test'
p1042
sg28
I0
sg593
I400
sg594
I0
sg34
S'Progressive Impact Armor'
p1043
sg596
F0
sg597
I0
sg27
F100
sg598
F900
sbsS'57'
p1044
g5
(g549
g7
NtRp1045
(dp1046
g552
I0
sg11
F1
sg12
F4
sg553
I0
sg554
S''
sg555
I0
sg556
I50
sg33
g1044
sg557
I24
sg10
F1
sg13
g584
sg585
I0
sg29
S'HNMA'
p1047
sg587
I0
sg31
S'65'
p1048
sg589
I0
sg590
F0
sg591
I1
sg25
S'test'
p1049
sg28
I0
sg593
I0
sg594
I0
sg34
S'Heavy Nuclear Missile Ammo'
p1050
sg596
F0
sg597
I0
sg27
F40
sg598
F1000
sbsS'50'
p1051
g5
(g549
g7
NtRp1052
(dp1053
g552
I0
sg11
F0
sg12
F2
sg553
I0
sg554
S''
sg555
I0
sg556
I100
sg33
g1051
sg557
I200
sg10
F0
sg13
g584
sg585
I0
sg29
S'AACA'
p1054
sg587
I0
sg31
S'172'
p1055
sg589
I0
sg590
F0
sg591
I0
sg25
S'test'
p1056
sg28
I0
sg593
I0
sg594
I0
sg34
S'AMS Auto Cannon Ammo'
p1057
sg596
F0
sg597
I0
sg27
F25
sg598
F900
sbssS'weapondata'
p1058
(dp1059
S'42'
p1060
g5
(canwp.war.weapondata
WeaponData
p1061
g7
NtRp1062
(dp1063
g11
F12
sg12
F0
sS'direct'
p1064
S''
sS'arc'
p1065
I10
sS'maxLock'
p1066
F3
sS'speed'
p1067
I6000
sS'maxPower'
p1068
F4100
sg31
S'265'
p1069
sg10
F6
sS'ammoHP'
p1070
I200
sg13
(S'id'
p1071
S'name'
p1072
S'abr'
p1073
S'costCR'
p1074
S'costAL'
p1075
S'costEC'
p1076
S'costIA'
p1077
S'techReq'
p1078
S'description'
p1079
S'range'
p1080
S'arc'
p1081
S'damage'
p1082
S'speed'
p1083
S'tracking'
p1084
S'maxLock'
p1085
S'ammo'
p1086
S'maxPower'
p1087
S'ammoHP'
p1088
S'maxCompHP'
p1089
S'numComps'
p1090
S'AMS'
p1091
S'missile'
p1092
S'direct'
p1093
tp1094
sS'damage'
p1095
F1600
sg33
g1060
sg29
S'HPM'
p1096
sS'AMS'
p1097
I0
sg25
S'test'
p1098
sS'missile'
p1099
S'impact'
p1100
sS'tracking'
p1101
F4
sg34
S'Heavy Plasma Missile'
p1102
sS'maxCompHP'
p1103
I200
sS'numComps'
p1104
I8
sg27
F240
sS'range'
p1105
I2000
sS'ammo'
p1106
I1
sbsS'48'
p1107
g5
(g1061
g7
NtRp1108
(dp1109
g11
F0
sg12
F50
sg1064
S''
sg1065
I360
sg1066
F7
sg1067
I0
sg1068
F7000
sg31
S'1'
sg10
F28
sg1070
I0
sg13
g1094
sg1095
F0
sg33
g1107
sg29
S'HFL'
p1110
sg1097
I0
sg25
S'test'
p1111
sg1099
S''
sg1101
F0
sg34
S'Heavy Fusion Launcher'
p1112
sg1103
I100
sg1104
I14
sg27
F140
sg1105
I7000
sg1106
I0
sbsS'43'
p1113
g5
(g1061
g7
NtRp1114
(dp1115
g11
F0
sg12
F50
sg1064
S''
sg1065
I360
sg1066
F4
sg1067
I0
sg1068
F4000
sg31
S'1'
sg10
F16
sg1070
I0
sg13
g1094
sg1095
F0
sg33
g1113
sg29
S'LNL'
p1116
sg1097
I0
sg25
S'test'
p1117
sg1099
S''
sg1101
F0
sg34
S'Light Nuclear Launcher'
p1118
sg1103
I50
sg1104
I8
sg27
F80
sg1105
I4000
sg1106
I0
sbsS'49'
p1119
g5
(g1061
g7
NtRp1120
(dp1121
g11
F0
sg12
F50
sg1064
S''
sg1065
I360
sg1066
F6
sg1067
I0
sg1068
F6000
sg31
S'1'
sg10
F24
sg1070
I0
sg13
g1094
sg1095
F0
sg33
g1119
sg29
S'LPL'
p1122
sg1097
I0
sg25
S'test'
p1123
sg1099
S''
sg1101
F0
sg34
S'Light Plasma Launcher'
p1124
sg1103
I200
sg1104
I12
sg27
F120
sg1105
I6000
sg1106
I0
sbsS'24'
p1125
g5
(g1061
g7
NtRp1126
(dp1127
g11
F4
sg12
F0
sg1064
S'impact'
p1128
sg1065
I10
sg1066
F3
sg1067
I0
sg1068
F700
sg31
S'64'
p1129
sg10
F2
sg1070
I0
sg13
g1094
sg1095
F200
sg33
g1125
sg29
S'HGG'
p1130
sg1097
I0
sg25
S'test'
p1131
sg1099
S''
sg1101
F0
sg34
S'Heavy Graviton Gun'
p1132
sg1103
I50
sg1104
I8
sg27
F80
sg1105
I800
sg1106
I1
sbsS'25'
p1133
g5
(g1061
g7
NtRp1134
(dp1135
g11
F2
sg12
F0
sg1064
S'impact'
p1136
sg1065
I180
sg1066
F0.25
sg1067
I0
sg1068
F150
sg31
S'72'
p1137
sg10
F1
sg1070
I0
sg13
g1094
sg1095
F100
sg33
g1133
sg29
S'AGG'
p1138
sg1097
I1
sg25
S'test'
p1139
sg1099
S''
sg1101
F0
sg34
S'AMS Graviton Gun'
p1140
sg1103
I50
sg1104
I4
sg27
F30
sg1105
I300
sg1106
I1
sbsS'26'
p1141
g5
(g1061
g7
NtRp1142
(dp1143
g11
F4
sg12
F0
sg1064
S'impact'
p1144
sg1065
I10
sg1066
F2
sg1067
I0
sg1068
F500
sg31
S'134'
p1145
sg10
F2
sg1070
I0
sg13
g1094
sg1095
F200
sg33
g1141
sg29
S'LAC'
p1146
sg1097
I0
sg25
S'test'
p1147
sg1099
S''
sg1101
F0
sg34
S'Light Auto Cannon'
p1148
sg1103
I100
sg1104
I4
sg27
F80
sg1105
I500
sg1106
I1
sbsS'27'
p1149
g5
(g1061
g7
NtRp1150
(dp1151
g11
F6
sg12
F0
sg1064
S'impact'
p1152
sg1065
I10
sg1066
F2.5
sg1067
I0
sg1068
F800
sg31
S'149'
p1153
sg10
F3
sg1070
I0
sg13
g1094
sg1095
F300
sg33
g1149
sg29
S'MAC'
p1154
sg1097
I0
sg25
S'test'
p1155
sg1099
S''
sg1101
F0
sg34
S'Medium Auto Cannon'
p1156
sg1103
I100
sg1104
I6
sg27
F120
sg1105
I700
sg1106
I1
sbsS'20'
p1157
g5
(g1061
g7
NtRp1158
(dp1159
g11
F18
sg12
F0
sg1064
S''
sg1065
I10
sg1066
F1.5
sg1067
I6000
sg1068
F3360
sg31
S'252'
p1160
sg10
F3
sg1070
I200
sg13
g1094
sg1095
F1200
sg33
g1157
sg29
S'MPT'
p1161
sg1097
I0
sg25
S'test'
p1162
sg1099
S'energy'
p1163
sg1101
F4
sg34
S'Medium Plasma Torpedo'
p1164
sg1103
I200
sg1104
I6
sg27
F180
sg1105
I1600
sg1106
I1
sbsS'21'
p1165
g5
(g1061
g7
NtRp1166
(dp1167
g11
F24
sg12
F0
sg1064
S''
sg1065
I10
sg1066
F2
sg1067
I6000
sg1068
F4500
sg31
S'267'
p1168
sg10
F6
sg1070
I200
sg13
g1094
sg1095
F1600
sg33
g1165
sg29
S'HPT'
p1169
sg1097
I0
sg25
S'test'
p1170
sg1099
S'energy'
p1171
sg1101
F4
sg34
S'Heavy Plasma Torpedo'
p1172
sg1103
I200
sg1104
I8
sg27
F240
sg1105
I2000
sg1106
I1
sbsS'22'
p1173
g5
(g1061
g7
NtRp1174
(dp1175
g11
F2
sg12
F0
sg1064
S'impact'
p1176
sg1065
I10
sg1066
F2
sg1067
I0
sg1068
F350
sg31
S'34'
p1177
sg10
F1
sg1070
I0
sg13
g1094
sg1095
F100
sg33
g1173
sg29
S'LGG'
p1178
sg1097
I0
sg25
S'test'
p1179
sg1099
S''
sg1101
F0
sg34
S'Light Graviton Gun'
p1180
sg1103
I50
sg1104
I4
sg27
F40
sg1105
I400
sg1106
I1
sbsS'23'
p1181
g5
(g1061
g7
NtRp1182
(dp1183
g11
F3
sg12
F0
sg1064
S'impact'
p1184
sg1065
I10
sg1066
F2.5
sg1067
I0
sg1068
F550
sg31
S'49'
p1185
sg10
F1
sg1070
I0
sg13
g1094
sg1095
F150
sg33
g1181
sg29
S'MGG'
p1186
sg1097
I0
sg25
S'test'
p1187
sg1099
S''
sg1101
F0
sg34
S'Medium Graviton Gun'
p1188
sg1103
I50
sg1104
I6
sg27
F60
sg1105
I600
sg1106
I1
sbsS'46'
p1189
g5
(g1061
g7
NtRp1190
(dp1191
g11
F0
sg12
F50
sg1064
S''
sg1065
I360
sg1066
F5
sg1067
I0
sg1068
F5000
sg31
S'1'
sg10
F20
sg1070
I0
sg13
g1094
sg1095
F0
sg33
g1189
sg29
S'LFL'
p1192
sg1097
I0
sg25
S'test'
p1193
sg1099
S''
sg1101
F0
sg34
S'Light Fusion Launcher'
p1194
sg1103
I100
sg1104
I10
sg27
F100
sg1105
I5000
sg1106
I0
sbsS'47'
p1195
g5
(g1061
g7
NtRp1196
(dp1197
g11
F0
sg12
F50
sg1064
S''
sg1065
I360
sg1066
F6
sg1067
I0
sg1068
F6000
sg31
S'1'
sg10
F24
sg1070
I0
sg13
g1094
sg1095
F0
sg33
g1195
sg29
S'MFL'
p1198
sg1097
I0
sg25
S'test'
p1199
sg1099
S''
sg1101
F0
sg34
S'Medium Fusion Launcher'
p1200
sg1103
I100
sg1104
I12
sg27
F120
sg1105
I6000
sg1106
I0
sbsS'44'
p1201
g5
(g1061
g7
NtRp1202
(dp1203
g11
F0
sg12
F50
sg1064
S''
sg1065
I360
sg1066
F5
sg1067
I0
sg1068
F5000
sg31
S'1'
sg10
F20
sg1070
I0
sg13
g1094
sg1095
F0
sg33
g1201
sg29
S'MNL'
p1204
sg1097
I0
sg25
S'test'
p1205
sg1099
S''
sg1101
F0
sg34
S'Medium Nuclear Launcher'
p1206
sg1103
I50
sg1104
I10
sg27
F100
sg1105
I5000
sg1106
I0
sbsS'45'
p1207
g5
(g1061
g7
NtRp1208
(dp1209
g11
F0
sg12
F50
sg1064
S''
sg1065
I360
sg1066
F6
sg1067
I0
sg1068
F6000
sg31
S'1'
sg10
F24
sg1070
I0
sg13
g1094
sg1095
F0
sg33
g1207
sg29
S'HNL'
p1210
sg1097
I0
sg25
S'test'
p1211
sg1099
S''
sg1101
F0
sg34
S'Heavy Nuclear Launcher'
p1212
sg1103
I50
sg1104
I12
sg27
F120
sg1105
I6000
sg1106
I0
sbsS'28'
p1213
g5
(g1061
g7
NtRp1214
(dp1215
g11
F8
sg12
F0
sg1064
S'impact'
p1216
sg1065
I10
sg1066
F3
sg1067
I0
sg1068
F1000
sg31
S'164'
p1217
sg10
F4
sg1070
I0
sg13
g1094
sg1095
F400
sg33
g1213
sg29
S'HAC'
p1218
sg1097
I0
sg25
S'test'
p1219
sg1099
S''
sg1101
F0
sg34
S'Heavy Auto Cannon'
p1220
sg1103
I100
sg1104
I8
sg27
F160
sg1105
I900
sg1106
I1
sbsS'29'
p1221
g5
(g1061
g7
NtRp1222
(dp1223
g11
F3
sg12
F0
sg1064
S'impact'
p1224
sg1065
I180
sg1066
F0.25
sg1067
I0
sg1068
F200
sg31
S'172'
p1225
sg10
F2
sg1070
I0
sg13
g1094
sg1095
F200
sg33
g1221
sg29
S'AAC'
p1226
sg1097
I1
sg25
S'test'
p1227
sg1099
S''
sg1101
F0
sg34
S'AMS Auto Cannon'
p1228
sg1103
I100
sg1104
I4
sg27
F60
sg1105
I400
sg1106
I1
sbsS'40'
p1229
g5
(g1061
g7
NtRp1230
(dp1231
g11
F6
sg12
F0
sg1064
S''
sg1065
I10
sg1066
F2
sg1067
I6000
sg1068
F2040
sg31
S'235'
p1232
sg10
F3
sg1070
I200
sg13
g1094
sg1095
F800
sg33
g1229
sg29
S'LPM'
p1233
sg1097
I0
sg25
S'test'
p1234
sg1099
S'impact'
p1235
sg1101
F4
sg34
S'Light Plasma Missile'
p1236
sg1103
I200
sg1104
I4
sg27
F120
sg1105
I1200
sg1106
I1
sbsS'41'
p1237
g5
(g1061
g7
NtRp1238
(dp1239
g11
F9
sg12
F0
sg1064
S''
sg1065
I10
sg1066
F2.5
sg1067
I6000
sg1068
F2960
sg31
S'250'
p1240
sg10
F3
sg1070
I200
sg13
g1094
sg1095
F1200
sg33
g1237
sg29
S'MPM'
p1241
sg1097
I0
sg25
S'test'
p1242
sg1099
S'impact'
p1243
sg1101
F4
sg34
S'Medium Plasma Missile'
p1244
sg1103
I200
sg1104
I6
sg27
F180
sg1105
I1600
sg1106
I1
sbsS'1'
g5
(g1061
g7
NtRp1245
(dp1246
g11
F4
sg12
F0
sg1064
S'energy'
p1247
sg1065
I10
sg1066
F2
sg1067
I0
sg1068
F400
sg31
S'36'
p1248
sg10
F1
sg1070
I0
sg13
g1094
sg1095
F100
sg33
S'1'
sg29
S'LPG'
p1249
sg1097
I0
sg25
S'test'
p1250
sg1099
S''
sg1101
F0
sg34
S'Light Phasor Gun'
p1251
sg1103
I50
sg1104
I4
sg27
F40
sg1105
I400
sg1106
I0
sbsS'3'
g5
(g1061
g7
NtRp1252
(dp1253
g11
F8
sg12
F0
sg1064
S'energy'
p1254
sg1065
I10
sg1066
F3
sg1067
I0
sg1068
F800
sg31
S'66'
p1255
sg10
F2
sg1070
I0
sg13
g1094
sg1095
F200
sg33
S'3'
sg29
S'HPG'
p1256
sg1097
I0
sg25
S'test'
p1257
sg1099
S''
sg1101
F0
sg34
S'Heavy Phasor Gun'
p1258
sg1103
I50
sg1104
I8
sg27
F80
sg1105
I800
sg1106
I0
sbsS'2'
g5
(g1061
g7
NtRp1259
(dp1260
g11
F6
sg12
F0
sg1064
S'energy'
p1261
sg1065
I10
sg1066
F2.5
sg1067
I0
sg1068
F600
sg31
S'51'
p1262
sg10
F1
sg1070
I0
sg13
g1094
sg1095
F150
sg33
S'2'
sg29
S'MPG'
p1263
sg1097
I0
sg25
S'test'
p1264
sg1099
S''
sg1101
F0
sg34
S'Medium Phasor Gun'
p1265
sg1103
I50
sg1104
I6
sg27
F60
sg1105
I600
sg1106
I0
sbsS'5'
g5
(g1061
g7
NtRp1266
(dp1267
g11
F8
sg12
F0
sg1064
S'energy'
p1268
sg1065
I10
sg1066
F2
sg1067
I0
sg1068
F600
sg31
S'136'
p1269
sg10
F2
sg1070
I0
sg13
g1094
sg1095
F200
sg33
S'5'
sg29
S'LFC'
p1270
sg1097
I0
sg25
S'test'
p1271
sg1099
S''
sg1101
F0
sg34
S'Light Fusion Cannon'
p1272
sg1103
I100
sg1104
I4
sg27
F80
sg1105
I500
sg1106
I0
sbsS'4'
g5
(g1061
g7
NtRp1273
(dp1274
g11
F4
sg12
F0
sg1064
S'energy'
p1275
sg1065
I180
sg1066
F0.25
sg1067
I0
sg1068
F200
sg31
S'73'
p1276
sg10
F1
sg1070
I0
sg13
g1094
sg1095
F50
sg33
S'4'
sg29
S'APG'
p1277
sg1097
I1
sg25
S'test'
p1278
sg1099
S''
sg1101
F0
sg34
S'AMS Phasor Gun'
p1279
sg1103
I50
sg1104
I4
sg27
F30
sg1105
I300
sg1106
I0
sbsS'7'
g5
(g1061
g7
NtRp1280
(dp1281
g11
F16
sg12
F0
sg1064
S'energy'
p1282
sg1065
I10
sg1066
F3
sg1067
I0
sg1068
F1200
sg31
S'166'
p1283
sg10
F4
sg1070
I0
sg13
g1094
sg1095
F400
sg33
S'7'
sg29
S'HFC'
p1284
sg1097
I0
sg25
S'test'
p1285
sg1099
S''
sg1101
F0
sg34
S'Heavy Fusion Cannon'
p1286
sg1103
I100
sg1104
I8
sg27
F160
sg1105
I900
sg1106
I0
sbsS'6'
g5
(g1061
g7
NtRp1287
(dp1288
g11
F12
sg12
F0
sg1064
S'energy'
p1289
sg1065
I10
sg1066
F2.5
sg1067
I0
sg1068
F900
sg31
S'151'
p1290
sg10
F3
sg1070
I0
sg13
g1094
sg1095
F300
sg33
S'6'
sg29
S'MFC'
p1291
sg1097
I0
sg25
S'test'
p1292
sg1099
S''
sg1101
F0
sg34
S'Medium Fusion Cannon'
p1293
sg1103
I100
sg1104
I6
sg27
F120
sg1105
I700
sg1106
I0
sbsS'9'
g5
(g1061
g7
NtRp1294
(dp1295
g11
F12
sg12
F0
sg1064
S'energy'
p1296
sg1065
I10
sg1066
F2
sg1067
I0
sg1068
F900
sg31
S'236'
p1297
sg10
F3
sg1070
I0
sg13
g1094
sg1095
F400
sg33
S'9'
sg29
S'LPC'
p1298
sg1097
I0
sg25
S'test'
p1299
sg1099
S''
sg1101
F0
sg34
S'Light Plasma Cannon'
p1300
sg1103
I200
sg1104
I4
sg27
F120
sg1105
I600
sg1106
I0
sbsS'8'
g5
(g1061
g7
NtRp1301
(dp1302
g11
F6
sg12
F0
sg1064
S'energy'
p1303
sg1065
I180
sg1066
F0.25
sg1067
I0
sg1068
F300
sg31
S'173'
p1304
sg10
F2
sg1070
I0
sg13
g1094
sg1095
F100
sg33
S'8'
sg29
S'AFC'
p1305
sg1097
I1
sg25
S'test'
p1306
sg1099
S''
sg1101
F0
sg34
S'AMS Fusion Cannon'
p1307
sg1103
I100
sg1104
I4
sg27
F60
sg1105
I400
sg1106
I0
sbsS'51'
p1308
g5
(g1061
g7
NtRp1309
(dp1310
g11
F0
sg12
F50
sg1064
S''
sg1065
I360
sg1066
F8
sg1067
I0
sg1068
F8000
sg31
S'1'
sg10
F32
sg1070
I0
sg13
g1094
sg1095
F0
sg33
g1308
sg29
S'HPL'
p1311
sg1097
I0
sg25
S'test'
p1312
sg1099
S''
sg1101
F0
sg34
S'Heavy Plasma Launcher'
p1313
sg1103
I200
sg1104
I16
sg27
F160
sg1105
I8000
sg1106
I0
sbsS'39'
p1314
g5
(g1061
g7
NtRp1315
(dp1316
g11
F8
sg12
F0
sg1064
S''
sg1065
I10
sg1066
F3
sg1067
I5000
sg1068
F2800
sg31
S'165'
p1317
sg10
F4
sg1070
I100
sg13
g1094
sg1095
F800
sg33
g1314
sg29
S'HFM'
p1318
sg1097
I0
sg25
S'test'
p1319
sg1099
S'impact'
p1320
sg1101
F3
sg34
S'Heavy Fusion Missile'
p1321
sg1103
I100
sg1104
I8
sg27
F160
sg1105
I1800
sg1106
I1
sbsS'38'
p1322
g5
(g1061
g7
NtRp1323
(dp1324
g11
F6
sg12
F0
sg1064
S''
sg1065
I10
sg1066
F2.5
sg1067
I5000
sg1068
F2040
sg31
S'150'
p1325
sg10
F3
sg1070
I100
sg13
g1094
sg1095
F600
sg33
g1322
sg29
S'MFM'
p1326
sg1097
I0
sg25
S'test'
p1327
sg1099
S'impact'
p1328
sg1101
F3
sg34
S'Medium Fusion Missile'
p1329
sg1103
I100
sg1104
I6
sg27
F120
sg1105
I1400
sg1106
I1
sbsS'11'
p1330
g5
(g1061
g7
NtRp1331
(dp1332
g11
F24
sg12
F0
sg1064
S'energy'
p1333
sg1065
I10
sg1066
F3
sg1067
I0
sg1068
F1800
sg31
S'266'
p1334
sg10
F6
sg1070
I0
sg13
g1094
sg1095
F800
sg33
g1330
sg29
S'HPC'
p1335
sg1097
I0
sg25
S'test'
p1336
sg1099
S''
sg1101
F0
sg34
S'Heavy Plasma Cannon'
p1337
sg1103
I200
sg1104
I8
sg27
F240
sg1105
I1000
sg1106
I0
sbsS'10'
p1338
g5
(g1061
g7
NtRp1339
(dp1340
g11
F18
sg12
F0
sg1064
S'energy'
p1341
sg1065
I10
sg1066
F2.5
sg1067
I0
sg1068
F1350
sg31
S'251'
p1342
sg10
F3
sg1070
I0
sg13
g1094
sg1095
F600
sg33
g1338
sg29
S'MPC'
p1343
sg1097
I0
sg25
S'test'
p1344
sg1099
S''
sg1101
F0
sg34
S'Medium Plasma Cannon'
p1345
sg1103
I200
sg1104
I6
sg27
F180
sg1105
I800
sg1106
I0
sbsS'13'
p1346
g5
(g1061
g7
NtRp1347
(dp1348
g11
F4
sg12
F0
sg1064
S''
sg1065
I10
sg1066
F1
sg1067
I4000
sg1068
F1000
sg31
S'37'
p1349
sg10
F1
sg1070
I50
sg13
g1094
sg1095
F200
sg33
g1346
sg29
S'LNT'
p1350
sg1097
I0
sg25
S'test'
p1351
sg1099
S'energy'
p1352
sg1101
F2
sg34
S'Light Nuclear Torpedo'
p1353
sg1103
I50
sg1104
I4
sg27
F40
sg1105
I800
sg1106
I1
sbsS'12'
p1354
g5
(g1061
g7
NtRp1355
(dp1356
g11
F12
sg12
F0
sg1064
S'energy'
p1357
sg1065
I180
sg1066
F0.25
sg1067
I0
sg1068
F450
sg31
S'275'
p1358
sg10
F3
sg1070
I0
sg13
g1094
sg1095
F200
sg33
g1354
sg29
S'APC'
p1359
sg1097
I1
sg25
S'test'
p1360
sg1099
S''
sg1101
F0
sg34
S'AMS Plasma Cannon'
p1361
sg1103
I200
sg1104
I4
sg27
F90
sg1105
I500
sg1106
I0
sbsS'15'
p1362
g5
(g1061
g7
NtRp1363
(dp1364
g11
F8
sg12
F0
sg1064
S''
sg1065
I10
sg1066
F2
sg1067
I4000
sg1068
F2000
sg31
S'67'
p1365
sg10
F2
sg1070
I50
sg13
g1094
sg1095
F400
sg33
g1362
sg29
S'HNT'
p1366
sg1097
I0
sg25
S'test'
p1367
sg1099
S'energy'
p1368
sg1101
F2
sg34
S'Heavy Nuclear Torpedo'
p1369
sg1103
I50
sg1104
I8
sg27
F80
sg1105
I1600
sg1106
I1
sbsS'14'
p1370
g5
(g1061
g7
NtRp1371
(dp1372
g11
F6
sg12
F0
sg1064
S''
sg1065
I10
sg1066
F1.5
sg1067
I4000
sg1068
F1500
sg31
S'52'
p1373
sg10
F1
sg1070
I50
sg13
g1094
sg1095
F300
sg33
g1370
sg29
S'MNT'
p1374
sg1097
I0
sg25
S'test'
p1375
sg1099
S'energy'
p1376
sg1101
F2
sg34
S'Medium Nuclear Torpedo'
p1377
sg1103
I50
sg1104
I6
sg27
F60
sg1105
I1200
sg1106
I1
sbsS'17'
p1378
g5
(g1061
g7
NtRp1379
(dp1380
g11
F12
sg12
F0
sg1064
S''
sg1065
I10
sg1066
F1.5
sg1067
I5000
sg1068
F2240
sg31
S'152'
p1381
sg10
F3
sg1070
I100
sg13
g1094
sg1095
F600
sg33
g1378
sg29
S'MFT'
p1382
sg1097
I0
sg25
S'test'
p1383
sg1099
S'energy'
p1384
sg1101
F3
sg34
S'Medium Fusion Torpedo'
p1385
sg1103
I100
sg1104
I6
sg27
F120
sg1105
I1400
sg1106
I1
sbsS'16'
p1386
g5
(g1061
g7
NtRp1387
(dp1388
g11
F8
sg12
F0
sg1064
S''
sg1065
I10
sg1066
F1
sg1067
I5000
sg1068
F1500
sg31
S'137'
p1389
sg10
F2
sg1070
I100
sg13
g1094
sg1095
F400
sg33
g1386
sg29
S'LFT'
p1390
sg1097
I0
sg25
S'test'
p1391
sg1099
S'energy'
p1392
sg1101
F3
sg34
S'Light Fusion Torpedo'
p1393
sg1103
I100
sg1104
I4
sg27
F80
sg1105
I1000
sg1106
I1
sbsS'19'
p1394
g5
(g1061
g7
NtRp1395
(dp1396
g11
F12
sg12
F0
sg1064
S''
sg1065
I10
sg1066
F1
sg1067
I6000
sg1068
F2240
sg31
S'237'
p1397
sg10
F3
sg1070
I200
sg13
g1094
sg1095
F800
sg33
g1394
sg29
S'LPT'
p1398
sg1097
I0
sg25
S'test'
p1399
sg1099
S'energy'
p1400
sg1101
F4
sg34
S'Light Plasma Torpedo'
p1401
sg1103
I200
sg1104
I4
sg27
F120
sg1105
I1200
sg1106
I1
sbsS'18'
p1402
g5
(g1061
g7
NtRp1403
(dp1404
g11
F16
sg12
F0
sg1064
S''
sg1065
I10
sg1066
F2
sg1067
I5000
sg1068
F3000
sg31
S'167'
p1405
sg10
F4
sg1070
I100
sg13
g1094
sg1095
F800
sg33
g1402
sg29
S'HFT'
p1406
sg1097
I0
sg25
S'test'
p1407
sg1099
S'energy'
p1408
sg1101
F3
sg34
S'Heavy Fusion Torpedo'
p1409
sg1103
I100
sg1104
I8
sg27
F160
sg1105
I1800
sg1106
I1
sbsS'31'
p1410
g5
(g1061
g7
NtRp1411
(dp1412
g11
F9
sg12
F0
sg1064
S'impact'
p1413
sg1065
I10
sg1066
F2.5
sg1067
I0
sg1068
F1150
sg31
S'249'
p1414
sg10
F3
sg1070
I0
sg13
g1094
sg1095
F600
sg33
g1410
sg29
S'MRG'
p1415
sg1097
I0
sg25
S'test'
p1416
sg1099
S''
sg1101
F0
sg34
S'Medium Rail Gun'
p1417
sg1103
I200
sg1104
I6
sg27
F180
sg1105
I800
sg1106
I1
sbsS'30'
p1418
g5
(g1061
g7
NtRp1419
(dp1420
g11
F6
sg12
F0
sg1064
S'impact'
p1421
sg1065
I10
sg1066
F2
sg1067
I0
sg1068
F700
sg31
S'234'
p1422
sg10
F3
sg1070
I0
sg13
g1094
sg1095
F400
sg33
g1418
sg29
S'LRG'
p1423
sg1097
I0
sg25
S'test'
p1424
sg1099
S''
sg1101
F0
sg34
S'Light Rail Gun'
p1425
sg1103
I200
sg1104
I4
sg27
F120
sg1105
I600
sg1106
I1
sbsS'37'
p1426
g5
(g1061
g7
NtRp1427
(dp1428
g11
F4
sg12
F0
sg1064
S''
sg1065
I10
sg1066
F2
sg1067
I5000
sg1068
F1400
sg31
S'135'
p1429
sg10
F2
sg1070
I100
sg13
g1094
sg1095
F400
sg33
g1426
sg29
S'LFM'
p1430
sg1097
I0
sg25
S'test'
p1431
sg1099
S'impact'
p1432
sg1101
F3
sg34
S'Light Fusion Missile'
p1433
sg1103
I100
sg1104
I4
sg27
F80
sg1105
I1000
sg1106
I1
sbsS'36'
p1434
g5
(g1061
g7
NtRp1435
(dp1436
g11
F4
sg12
F0
sg1064
S''
sg1065
I10
sg1066
F3
sg1067
I4000
sg1068
F1900
sg31
S'65'
p1437
sg10
F2
sg1070
I50
sg13
g1094
sg1095
F400
sg33
g1434
sg29
S'HNM'
p1438
sg1097
I0
sg25
S'test'
p1439
sg1099
S'impact'
p1440
sg1101
F2
sg34
S'Heavy Nuclear Missile'
p1441
sg1103
I50
sg1104
I8
sg27
F80
sg1105
I1600
sg1106
I1
sbsS'35'
p1442
g5
(g1061
g7
NtRp1443
(dp1444
g11
F3
sg12
F0
sg1064
S''
sg1065
I10
sg1066
F2.5
sg1067
I4000
sg1068
F1400
sg31
S'50'
p1445
sg10
F1
sg1070
I50
sg13
g1094
sg1095
F300
sg33
g1442
sg29
S'MNM'
p1446
sg1097
I0
sg25
S'test'
p1447
sg1099
S'impact'
p1448
sg1101
F2
sg34
S'Medium Nuclear Missile'
p1449
sg1103
I50
sg1104
I6
sg27
F60
sg1105
I1200
sg1106
I1
sbsS'34'
p1450
g5
(g1061
g7
NtRp1451
(dp1452
g11
F2
sg12
F0
sg1064
S''
sg1065
I10
sg1066
F2
sg1067
I4000
sg1068
F950
sg31
S'35'
p1453
sg10
F1
sg1070
I50
sg13
g1094
sg1095
F200
sg33
g1450
sg29
S'LNM'
p1454
sg1097
I0
sg25
S'test'
p1455
sg1099
S'impact'
p1456
sg1101
F2
sg34
S'Light Nuclear Missile'
p1457
sg1103
I50
sg1104
I4
sg27
F40
sg1105
I800
sg1106
I1
sbsS'33'
p1458
g5
(g1061
g7
NtRp1459
(dp1460
g11
F6
sg12
F0
sg1064
S'impact'
p1461
sg1065
I180
sg1066
F0.25
sg1067
I0
sg1068
F250
sg31
S'274'
p1462
sg10
F3
sg1070
I0
sg13
g1094
sg1095
F400
sg33
g1458
sg29
S'ARG'
p1463
sg1097
I1
sg25
S'test'
p1464
sg1099
S''
sg1101
F0
sg34
S'AMS Rail Gun'
p1465
sg1103
I200
sg1104
I4
sg27
F90
sg1105
I500
sg1106
I1
sbsS'32'
p1466
g5
(g1061
g7
NtRp1467
(dp1468
g11
F12
sg12
F0
sg1064
S'impact'
p1469
sg1065
I10
sg1066
F3
sg1067
I0
sg1068
F1400
sg31
S'264'
p1470
sg10
F6
sg1070
I0
sg13
g1094
sg1095
F800
sg33
g1466
sg29
S'HRG'
p1471
sg1097
I0
sg25
S'test'
p1472
sg1099
S''
sg1101
F0
sg34
S'Heavy Rail Gun'
p1473
sg1103
I200
sg1104
I8
sg27
F240
sg1105
I1000
sg1106
I1
sbsS'50'
p1474
g5
(g1061
g7
NtRp1475
(dp1476
g11
F0
sg12
F50
sg1064
S''
sg1065
I360
sg1066
F7
sg1067
I0
sg1068
F7000
sg31
S'1'
sg10
F28
sg1070
I0
sg13
g1094
sg1095
F0
sg33
g1474
sg29
S'MPL'
p1477
sg1097
I0
sg25
S'test'
p1478
sg1099
S''
sg1101
F0
sg34
S'Medium Plasma Launcher'
p1479
sg1103
I200
sg1104
I14
sg27
F140
sg1105
I7000
sg1106
I0
sbssS'dronehulldata'
p1480
(dp1481
S'108'
p1482
g5
(canwp.war.shiphulldata
DroneHullData
p1483
g7
NtRp1484
(dp1485
S'function'
p1486
S'warship'
p1487
sS'hardPoints'
p1488
(dp1489
S'fore-4'
p1490
(lp1491
I270
aI5
asS'fore-3'
p1492
(lp1493
I180
aI5
asS'fore-2'
p1494
(lp1495
I90
aI5
asS'fore-1'
p1496
(lp1497
I0
aI0
assg10
F35
sg11
F35
sg12
F70
sg13
(S'id'
p1498
S'name'
p1499
S'abr'
p1500
S'costCR'
p1501
S'costAL'
p1502
S'costEC'
p1503
S'costIA'
p1504
S'techReq'
p1505
S'description'
p1506
S'function'
p1507
S'size'
p1508
S'componentNum'
p1509
S'maxISP'
p1510
S'mass'
p1511
tp1512
sg25
S'test'
p1513
sS'size'
p1514
S'small'
p1515
sg27
F1400
sg29
S'MPD'
p1516
sS'componentNum'
p1517
I14
sS'maxISP'
p1518
F1750
sg598
F3500
sg31
S'231'
p1519
sg33
g1482
sg34
S'Medium Plasma Drone'
p1520
sbsS'109'
p1521
g5
(g1483
g7
NtRp1522
(dp1523
g1486
S'warship'
p1524
sg1488
(dp1525
g1490
(lp1526
I270
aI5
asg1492
(lp1527
I180
aI5
asg1494
(lp1528
I90
aI5
asg1496
(lp1529
I0
aI0
assg10
F40
sg11
F40
sg12
F80
sg13
g1512
sg25
S'test'
p1530
sg1514
S'small'
p1531
sg27
F1600
sg29
S'HPD'
p1532
sg1517
I16
sg1518
F2000
sg598
F4000
sg31
S'246'
p1533
sg33
g1521
sg34
S'Heavy Plasma Drone'
p1534
sbsS'102'
p1535
g5
(g1483
g7
NtRp1536
(dp1537
g1486
S'warship'
p1538
sg1488
(dp1539
g1490
(lp1540
I270
aI5
asg1492
(lp1541
I180
aI5
asg1494
(lp1542
I90
aI5
asg1496
(lp1543
I0
aI0
assg10
F25
sg11
F25
sg12
F50
sg13
g1512
sg25
S'test'
p1544
sg1514
S'small'
p1545
sg27
F1000
sg29
S'MND'
p1546
sg1517
I10
sg1518
F1250
sg598
F2500
sg31
S'31'
p1547
sg33
g1535
sg34
S'Medium Nuclear Drone'
p1548
sbsS'103'
p1549
g5
(g1483
g7
NtRp1550
(dp1551
g1486
S'warship'
p1552
sg1488
(dp1553
g1490
(lp1554
I270
aI5
asg1492
(lp1555
I180
aI5
asg1494
(lp1556
I90
aI5
asg1496
(lp1557
I0
aI0
assg10
F30
sg11
F30
sg12
F60
sg13
g1512
sg25
S'test'
p1558
sg1514
S'small'
p1559
sg27
F1200
sg29
S'HND'
p1560
sg1517
I12
sg1518
F1500
sg598
F3000
sg31
S'46'
p1561
sg33
g1549
sg34
S'Heavy Nuclear Drone'
p1562
sbsS'101'
p1563
g5
(g1483
g7
NtRp1564
(dp1565
g1486
S'warship'
p1566
sg1488
(dp1567
g1490
(lp1568
I270
aI5
asg1492
(lp1569
I180
aI5
asg1494
(lp1570
I90
aI5
asg1496
(lp1571
I0
aI0
assg10
F20
sg11
F20
sg12
F40
sg13
g1512
sg25
S'test'
p1572
sg1514
S'small'
p1573
sg27
F800
sg29
S'LND'
p1574
sg1517
I8
sg1518
F1000
sg598
F2000
sg31
S'20'
p1575
sg33
g1563
sg34
S'Light Nuclear Drone'
p1576
sbsS'106'
p1577
g5
(g1483
g7
NtRp1578
(dp1579
g1486
S'warship'
p1580
sg1488
(dp1581
g1490
(lp1582
I270
aI5
asg1492
(lp1583
I180
aI5
asg1494
(lp1584
I90
aI5
asg1496
(lp1585
I0
aI0
assg10
F35
sg11
F35
sg12
F70
sg13
g1512
sg25
S'test'
p1586
sg1514
S'small'
p1587
sg27
F1400
sg29
S'HFD'
p1588
sg1517
I14
sg1518
F1750
sg598
F3500
sg31
S'146'
p1589
sg33
g1577
sg34
S'Heavy Fusion Drone'
p1590
sbsS'107'
p1591
g5
(g1483
g7
NtRp1592
(dp1593
g1486
S'warship'
p1594
sg1488
(dp1595
g1490
(lp1596
I270
aI5
asg1492
(lp1597
I180
aI5
asg1494
(lp1598
I90
aI5
asg1496
(lp1599
I0
aI0
assg10
F30
sg11
F30
sg12
F60
sg13
g1512
sg25
S'test'
p1600
sg1514
S'small'
p1601
sg27
F1200
sg29
S'LPD'
p1602
sg1517
I12
sg1518
F1500
sg598
F3000
sg31
S'160'
p1603
sg33
g1591
sg34
S'Light Plasma Drone'
p1604
sbsS'104'
p1605
g5
(g1483
g7
NtRp1606
(dp1607
g1486
S'warship'
p1608
sg1488
(dp1609
g1490
(lp1610
I270
aI5
asg1492
(lp1611
I180
aI5
asg1494
(lp1612
I90
aI5
asg1496
(lp1613
I0
aI0
assg10
F25
sg11
F25
sg12
F50
sg13
g1512
sg25
S'test'
p1614
sg1514
S'small'
p1615
sg27
F1000
sg29
S'LFD'
p1616
sg1517
I10
sg1518
F1250
sg598
F2500
sg31
S'60'
p1617
sg33
g1605
sg34
S'Light Fusion Drone'
p1618
sbsS'105'
p1619
g5
(g1483
g7
NtRp1620
(dp1621
g1486
S'warship'
p1622
sg1488
(dp1623
g1490
(lp1624
I270
aI5
asg1492
(lp1625
I180
aI5
asg1494
(lp1626
I90
aI5
asg1496
(lp1627
I0
aI0
assg10
F30
sg11
F30
sg12
F60
sg13
g1512
sg25
S'test'
p1628
sg1514
S'small'
p1629
sg27
F1200
sg29
S'MFD'
p1630
sg1517
I12
sg1518
F1500
sg598
F3000
sg31
S'131'
p1631
sg33
g1619
sg34
S'Medium Fusion Drone'
p1632
sbssS'shiphulldata'
p1633
(dp1634
S'11'
p1635
g5
(canwp.war.shiphulldata
ShipHullData
p1636
g7
NtRp1637
(dp1638
g1486
S'warship'
p1639
sg1488
(dp1640
S'aft-1'
p1641
(lp1642
I180
aI16
asS'aft-3'
p1643
(lp1644
I180
aI16
asS'aft-2'
p1645
(lp1646
I180
aI16
asS'aft-5'
p1647
(lp1648
I180
aI16
asS'aft-4'
p1649
(lp1650
I180
aI16
asS'aft-6'
p1651
(lp1652
I180
aI16
asS'fore-6'
p1653
(lp1654
I0
aI16
asS'fore-5'
p1655
(lp1656
I0
aI16
asS'fore-4'
p1657
(lp1658
I0
aI16
asS'fore-3'
p1659
(lp1660
I0
aI16
asS'fore-2'
p1661
(lp1662
I0
aI16
asS'fore-1'
p1663
(lp1664
I0
aI16
asS'star-1'
p1665
(lp1666
I270
aI16
asS'star-3'
p1667
(lp1668
I270
aI16
asS'star-2'
p1669
(lp1670
I270
aI16
asS'star-5'
p1671
(lp1672
I270
aI16
asS'star-4'
p1673
(lp1674
I270
aI16
asS'star-6'
p1675
(lp1676
I270
aI16
asS'port-4'
p1677
(lp1678
I90
aI16
asS'port-5'
p1679
(lp1680
I90
aI16
asS'port-6'
p1681
(lp1682
I90
aI16
asS'port-1'
p1683
(lp1684
I90
aI16
asS'port-2'
p1685
(lp1686
I90
aI16
asS'port-3'
p1687
(lp1688
I90
aI16
assg10
F180
sg11
F360
sg12
F720
sg13
g1512
sg25
S'test'
p1689
sg1514
S'large'
p1690
sg27
F7200
sg29
S'DRN'
p1691
sg1517
I24
sg1518
F9600
sg598
F19200
sg31
S'272'
p1692
sg33
g1635
sg34
S'Dreadnought'
p1693
sbsS'10'
p1694
g5
(g1636
g7
NtRp1695
(dp1696
g1486
S'warship'
p1697
sg1488
(dp1698
g1641
(lp1699
I180
aI16
asg1677
(lp1700
I90
aI16
asg1643
(lp1701
I180
aI16
asg1645
(lp1702
I180
aI16
asg1647
(lp1703
I180
aI16
asg1683
(lp1704
I90
aI16
asg1685
(lp1705
I90
aI16
asg1687
(lp1706
I90
aI16
asg1655
(lp1707
I0
aI16
asg1657
(lp1708
I0
aI16
asg1659
(lp1709
I0
aI16
asg1661
(lp1710
I0
aI16
asg1663
(lp1711
I0
aI16
asg1665
(lp1712
I270
aI16
asg1667
(lp1713
I270
aI16
asg1669
(lp1714
I270
aI16
asg1671
(lp1715
I270
aI16
asg1673
(lp1716
I270
aI16
asg1679
(lp1717
I90
aI16
asg1649
(lp1718
I180
aI16
assg10
F165
sg11
F330
sg12
F660
sg13
g1512
sg25
S'test'
p1719
sg1514
S'large'
p1720
sg27
F6600
sg29
S'HCU'
p1721
sg1517
I22
sg1518
F8800
sg598
F17600
sg31
S'260'
p1722
sg33
g1694
sg34
S'Heavy Cruiser'
p1723
sbsS'13'
p1724
g5
(g1636
g7
NtRp1725
(dp1726
g1486
S'carrier'
p1727
sg1488
(dp1728
g1641
(lp1729
I170
aI15
asg1643
(lp1730
I180
aI15
asg1645
(lp1731
I190
aI15
asg1683
(lp1732
I40
aI25
asg1685
(lp1733
I100
aI20
asg1687
(lp1734
I150
aI25
asg1659
(lp1735
I0
aI15
asg1661
(lp1736
I350
aI15
asg1663
(lp1737
I10
aI15
asg1665
(lp1738
I320
aI25
asg1667
(lp1739
I210
aI25
asg1669
(lp1740
I100
aI20
assg10
F90
sg11
F180
sg12
F360
sg13
g1512
sg25
S'test'
p1741
sg1514
S'large'
p1742
sg27
F3600
sg29
S'ECA'
p1743
sg1517
I12
sg1518
F1200
sg598
F12000
sg31
S'61'
p1744
sg33
g1724
sg34
S'Escort Carrier'
p1745
sbsS'12'
p1746
g5
(g1636
g7
NtRp1747
(dp1748
g1486
S'warship'
p1749
sg1488
(dp1750
g1641
(lp1751
I180
aI16
asg1643
(lp1752
I180
aI16
asg1645
(lp1753
I180
aI16
asg1647
(lp1754
I180
aI16
asg1649
(lp1755
I180
aI16
asS'aft-7'
p1756
(lp1757
I180
aI16
asg1651
(lp1758
I180
aI16
asS'fore-7'
p1759
(lp1760
I0
aI16
asg1653
(lp1761
I0
aI16
asg1655
(lp1762
I0
aI16
asg1657
(lp1763
I0
aI16
asg1659
(lp1764
I0
aI16
asg1661
(lp1765
I0
aI16
asg1663
(lp1766
I0
aI16
asg1665
(lp1767
I270
aI16
asg1667
(lp1768
I270
aI16
asg1669
(lp1769
I270
aI16
asg1671
(lp1770
I270
aI16
asg1673
(lp1771
I270
aI16
asS'star-7'
p1772
(lp1773
I270
aI16
asg1675
(lp1774
I270
aI16
asg1677
(lp1775
I90
aI16
asg1679
(lp1776
I90
aI16
asg1681
(lp1777
I90
aI16
asS'port-7'
p1778
(lp1779
I90
aI16
asg1683
(lp1780
I90
aI16
asg1685
(lp1781
I90
aI16
asg1687
(lp1782
I90
aI16
assg10
F210
sg11
F420
sg12
F840
sg13
g1512
sg25
S'test'
p1783
sg1514
S'large'
p1784
sg27
F8400
sg29
S'SDN'
p1785
sg1517
I28
sg1518
F14000
sg598
F19600
sg31
S'273'
p1786
sg33
g1746
sg34
S'Super Dreadnought'
p1787
sbsS'15'
p1788
g5
(g1636
g7
NtRp1789
(dp1790
g1486
S'carrier'
p1791
sg1488
(dp1792
g1641
(lp1793
I180
aI16
asg1677
(lp1794
I90
aI16
asg1643
(lp1795
I180
aI16
asg1645
(lp1796
I180
aI16
asg1647
(lp1797
I180
aI16
asg1683
(lp1798
I90
aI16
asg1685
(lp1799
I90
aI16
asg1687
(lp1800
I90
aI16
asg1655
(lp1801
I0
aI16
asg1657
(lp1802
I0
aI16
asg1659
(lp1803
I0
aI16
asg1661
(lp1804
I0
aI16
asg1663
(lp1805
I0
aI16
asg1665
(lp1806
I270
aI16
asg1667
(lp1807
I270
aI16
asg1669
(lp1808
I270
aI16
asg1671
(lp1809
I270
aI16
asg1673
(lp1810
I270
aI16
asg1679
(lp1811
I90
aI16
asg1649
(lp1812
I180
aI16
assg10
F150
sg11
F300
sg12
F600
sg13
g1512
sg25
S'test'
p1813
sg1514
S'large'
p1814
sg27
F6000
sg29
S'HCA'
p1815
sg1517
I20
sg1518
F8000
sg598
F16000
sg31
S'261'
p1816
sg33
g1788
sg34
S'Heavy Carrier'
p1817
sbsS'14'
p1818
g5
(g1636
g7
NtRp1819
(dp1820
g1486
S'carrier'
p1821
sg1488
(dp1822
g1641
(lp1823
I180
aI16
asg1677
(lp1824
I90
aI16
asg1643
(lp1825
I180
aI16
asg1645
(lp1826
I180
aI16
asg1683
(lp1827
I90
aI16
asg1685
(lp1828
I90
aI16
asg1687
(lp1829
I90
aI16
asg1657
(lp1830
I0
aI16
asg1659
(lp1831
I0
aI16
asg1661
(lp1832
I0
aI16
asg1663
(lp1833
I0
aI16
asg1665
(lp1834
I270
aI16
asg1667
(lp1835
I270
aI16
asg1669
(lp1836
I270
aI16
asg1673
(lp1837
I270
aI16
asg1649
(lp1838
I180
aI16
assg10
F120
sg11
F240
sg12
F480
sg13
g1512
sg25
S'test'
p1839
sg1514
S'large'
p1840
sg27
F4800
sg29
S'BCA'
p1841
sg1517
I16
sg1518
F3200
sg598
F14400
sg31
S'161'
p1842
sg33
g1818
sg34
S'Battle Carrier'
p1843
sbsS'17'
p1844
g5
(g1636
g7
NtRp1845
(dp1846
g1486
S'troopship'
p1847
sg1488
(dp1848
g1641
(lp1849
I180
aI16
asg1677
(lp1850
I90
aI16
asg1643
(lp1851
I180
aI16
asg1645
(lp1852
I180
aI16
asg1683
(lp1853
I90
aI16
asg1685
(lp1854
I90
aI16
asg1687
(lp1855
I90
aI16
asg1657
(lp1856
I0
aI16
asg1659
(lp1857
I0
aI16
asg1661
(lp1858
I0
aI16
asg1663
(lp1859
I0
aI16
asg1665
(lp1860
I270
aI16
asg1667
(lp1861
I270
aI16
asg1669
(lp1862
I270
aI16
asg1673
(lp1863
I270
aI16
asg1649
(lp1864
I180
aI16
assg10
F120
sg11
F240
sg12
F480
sg13
g1512
sg25
S'test'
p1865
sg1514
S'large'
p1866
sg27
F4800
sg29
S'BTT'
p1867
sg1517
I16
sg1518
F3200
sg598
F14400
sg31
S'122'
p1868
sg33
g1844
sg34
S'Battle Troop Transport'
p1869
sbsS'16'
p1870
g5
(g1636
g7
NtRp1871
(dp1872
g1486
S'troopship'
p1873
sg1488
(dp1874
g1641
(lp1875
I170
aI15
asg1643
(lp1876
I180
aI15
asg1645
(lp1877
I190
aI15
asg1683
(lp1878
I40
aI25
asg1685
(lp1879
I100
aI20
asg1687
(lp1880
I150
aI25
asg1659
(lp1881
I0
aI15
asg1661
(lp1882
I350
aI15
asg1663
(lp1883
I10
aI15
asg1665
(lp1884
I320
aI25
asg1667
(lp1885
I210
aI25
asg1669
(lp1886
I100
aI20
assg10
F90
sg11
F180
sg12
F360
sg13
g1512
sg25
S'test'
p1887
sg1514
S'large'
p1888
sg27
F3600
sg29
S'LTT'
p1889
sg1517
I12
sg1518
F1200
sg598
F12000
sg31
S'22'
p1890
sg33
g1870
sg34
S'Light Troop Transport'
p1891
sbsS'19'
p1892
g5
(g1636
g7
NtRp1893
(dp1894
g1486
S'platform'
p1895
sg1488
(dp1896
g1641
(lp1897
I180
aI16
asg1677
(lp1898
I90
aI16
asg1643
(lp1899
I180
aI16
asg1645
(lp1900
I180
aI16
asg1647
(lp1901
I180
aI16
asg1683
(lp1902
I90
aI16
asg1685
(lp1903
I90
aI16
asg1687
(lp1904
I90
aI16
asg1655
(lp1905
I0
aI16
asg1657
(lp1906
I0
aI16
asg1659
(lp1907
I0
aI16
asg1661
(lp1908
I0
aI16
asg1663
(lp1909
I0
aI16
asg1665
(lp1910
I270
aI16
asg1667
(lp1911
I270
aI16
asg1669
(lp1912
I270
aI16
asg1671
(lp1913
I270
aI16
asg1673
(lp1914
I270
aI16
asg1679
(lp1915
I90
aI16
asg1649
(lp1916
I180
aI16
assg10
F75
sg11
F150
sg12
F300
sg13
g1512
sg25
S'test'
p1917
sg1514
S'large'
p1918
sg27
F3000
sg29
S'LWP'
p1919
sg1517
I20
sg1518
F2000
sg598
F20000
sg31
S'21'
p1920
sg33
g1892
sg34
S'Light Weapons Platform'
p1921
sbsS'18'
p1922
g5
(g1636
g7
NtRp1923
(dp1924
g1486
S'troopship'
p1925
sg1488
(dp1926
g1641
(lp1927
I180
aI16
asg1677
(lp1928
I90
aI16
asg1643
(lp1929
I180
aI16
asg1645
(lp1930
I180
aI16
asg1647
(lp1931
I180
aI16
asg1683
(lp1932
I90
aI16
asg1685
(lp1933
I90
aI16
asg1687
(lp1934
I90
aI16
asg1655
(lp1935
I0
aI16
asg1657
(lp1936
I0
aI16
asg1659
(lp1937
I0
aI16
asg1661
(lp1938
I0
aI16
asg1663
(lp1939
I0
aI16
asg1665
(lp1940
I270
aI16
asg1667
(lp1941
I270
aI16
asg1669
(lp1942
I270
aI16
asg1671
(lp1943
I270
aI16
asg1673
(lp1944
I270
aI16
asg1679
(lp1945
I90
aI16
asg1649
(lp1946
I180
aI16
assg10
F150
sg11
F300
sg12
F600
sg13
g1512
sg25
S'test'
p1947
sg1514
S'large'
p1948
sg27
F6000
sg29
S'HTT'
p1949
sg1517
I20
sg1518
F8000
sg598
F16000
sg31
S'222'
p1950
sg33
g1922
sg34
S'Heavy Troop Transport'
p1951
sbsS'20'
p1952
g5
(g1636
g7
NtRp1953
(dp1954
g1486
S'platform'
p1955
sg1488
(dp1956
g1641
(lp1957
I180
aI16
asg1643
(lp1958
I180
aI16
asg1645
(lp1959
I180
aI16
asg1647
(lp1960
I180
aI16
asg1649
(lp1961
I180
aI16
asg1756
(lp1962
I180
aI16
asg1651
(lp1963
I180
aI16
asg1759
(lp1964
I0
aI16
asg1653
(lp1965
I0
aI16
asg1655
(lp1966
I0
aI16
asg1657
(lp1967
I0
aI16
asg1659
(lp1968
I0
aI16
asg1661
(lp1969
I0
aI16
asg1663
(lp1970
I0
aI16
asg1665
(lp1971
I270
aI16
asg1667
(lp1972
I270
aI16
asg1669
(lp1973
I270
aI16
asg1671
(lp1974
I270
aI16
asg1673
(lp1975
I270
aI16
asg1772
(lp1976
I270
aI16
asg1675
(lp1977
I270
aI16
asg1677
(lp1978
I90
aI16
asg1679
(lp1979
I90
aI16
asg1681
(lp1980
I90
aI16
asg1778
(lp1981
I90
aI16
asg1683
(lp1982
I90
aI16
asg1685
(lp1983
I90
aI16
asg1687
(lp1984
I90
aI16
assg10
F105
sg11
F210
sg12
F420
sg13
g1512
sg25
S'test'
p1985
sg1514
S'large'
p1986
sg27
F4200
sg29
S'BWP'
p1987
sg1517
I28
sg1518
F5600
sg598
F25200
sg31
S'121'
p1988
sg33
g1952
sg34
S'Battle Weapons Platform'
p1989
sbsS'1'
g5
(g1636
g7
NtRp1990
(dp1991
g1486
S'warship'
p1992
sg1488
(dp1993
g1641
(lp1994
I180
aI7
asg1665
(lp1995
I225
aI7
asg1683
(lp1996
I135
aI7
asg1663
(lp1997
I0
aI8
assg10
F30
sg11
F60
sg12
F120
sg13
g1512
sg25
S'test'
p1998
sg1514
S'small'
p1999
sg27
F1200
sg29
S'SCT'
p2000
sg1517
I4
sg1518
F400
sg598
F4000
sg31
S'20'
p2001
sg33
S'1'
sg34
S'Scout'
p2002
sbsS'3'
g5
(g1636
g7
NtRp2003
(dp2004
g1486
S'warship'
p2005
sg1488
(dp2006
g1641
(lp2007
I210
aI4
asg1645
(lp2008
I150
aI4
asg1683
(lp2009
I120
aI16
asg1685
(lp2010
I120
aI12
asg1661
(lp2011
I30
aI4
asg1663
(lp2012
I330
aI4
asg1665
(lp2013
I240
aI16
asg1669
(lp2014
I240
aI12
assg10
F60
sg11
F120
sg12
F240
sg13
g1512
sg25
S'test'
p2015
sg1514
S'small'
p2016
sg27
F2400
sg29
S'COR'
p2017
sg1517
I8
sg1518
F800
sg598
F8000
sg31
S'46'
p2018
sg33
S'3'
sg34
S'Corvette'
p2019
sbsS'2'
g5
(g1636
g7
NtRp2020
(dp2021
g1486
S'warship'
p2022
sg1488
(dp2023
g1641
(lp2024
I180
aI8
asg1665
(lp2025
I270
aI8
asg1683
(lp2026
I90
aI8
asg1663
(lp2027
I0
aI8
assg10
F45
sg11
F90
sg12
F180
sg13
g1512
sg25
S'test'
p2028
sg1514
S'small'
p2029
sg27
F1800
sg29
S'INT'
p2030
sg1517
I6
sg1518
F600
sg598
F6000
sg31
S'31'
p2031
sg33
S'2'
sg34
S'Interceptor'
p2032
sbsS'5'
g5
(g1636
g7
NtRp2033
(dp2034
g1486
S'warship'
p2035
sg1488
(dp2036
g1641
(lp2037
I135
aI8
asg1643
(lp2038
I180
aI8
asg1645
(lp2039
I225
aI8
asg1683
(lp2040
I20
aI12
asg1685
(lp2041
I30
aI4
asg1687
(lp2042
I135
aI26
asg1659
(lp2043
I350
aI30
asg1661
(lp2044
I10
aI30
asg1663
(lp2045
I0
aI30
asg1665
(lp2046
I340
aI12
asg1667
(lp2047
I225
aI26
asg1669
(lp2048
I330
aI4
assg10
F90
sg11
F180
sg12
F360
sg13
g1512
sg25
S'test'
p2049
sg1514
S'large'
p2050
sg27
F3600
sg29
S'FRG'
p2051
sg1517
I12
sg1518
F2400
sg598
F10800
sg31
S'131'
p2052
sg33
S'5'
sg34
S'Frigate'
p2053
sbsS'4'
g5
(g1636
g7
NtRp2054
(dp2055
g1486
S'warship'
p2056
sg1488
(dp2057
g1641
(lp2058
I210
aI4
asg1645
(lp2059
I150
aI4
asg1683
(lp2060
I120
aI16
asg1685
(lp2061
I120
aI12
asg1661
(lp2062
I30
aI4
asg1663
(lp2063
I330
aI4
asg1665
(lp2064
I240
aI16
asg1669
(lp2065
I240
aI12
assg10
F75
sg11
F150
sg12
F300
sg13
g1512
sg25
S'test'
p2066
sg1514
S'small'
p2067
sg27
F3000
sg29
S'HCO'
p2068
sg1517
I10
sg1518
F1000
sg598
F10000
sg31
S'60'
p2069
sg33
S'4'
sg34
S'Heavy Corvette'
p2070
sbsS'7'
g5
(g1636
g7
NtRp2071
(dp2072
g1486
S'warship'
p2073
sg1488
(dp2074
g1641
(lp2075
I180
aI20
asg1677
(lp2076
I135
aI30
asg1643
(lp2077
I220
aI20
asg1645
(lp2078
I200
aI20
asg1683
(lp2079
I23
aI20
asg1685
(lp2080
I30
aI14
asg1687
(lp2081
I45
aI4
asg1657
(lp2082
I347
aI46
asg1659
(lp2083
I13
aI46
asg1661
(lp2084
I355
aI46
asg1663
(lp2085
I5
aI46
asg1665
(lp2086
I337
aI20
asg1667
(lp2087
I315
aI4
asg1669
(lp2088
I330
aI14
asg1673
(lp2089
I225
aI30
asg1649
(lp2090
I180
aI30
assg10
F120
sg11
F240
sg12
F480
sg13
g1512
sg25
S'test'
p2091
sg1514
S'large'
p2092
sg27
F4800
sg29
S'DST'
p2093
sg1517
I16
sg1518
F3200
sg598
F14400
sg31
S'160'
p2094
sg33
S'7'
sg34
S'Destroyer'
p2095
sbsS'6'
g5
(g1636
g7
NtRp2096
(dp2097
g1486
S'warship'
p2098
sg1488
(dp2099
g1641
(lp2100
I135
aI8
asg1643
(lp2101
I180
aI8
asg1645
(lp2102
I225
aI8
asg1683
(lp2103
I25
aI18
asg1685
(lp2104
I30
aI10
asg1687
(lp2105
I135
aI30
asg1659
(lp2106
I350
aI35
asg1661
(lp2107
I10
aI35
asg1663
(lp2108
I0
aI35
asg1665
(lp2109
I335
aI18
asg1667
(lp2110
I225
aI30
asg1669
(lp2111
I330
aI10
assg10
F105
sg11
F210
sg12
F420
sg13
g1512
sg25
S'test'
p2112
sg1514
S'large'
p2113
sg27
F4200
sg29
S'BFR'
p2114
sg1517
I14
sg1518
F2800
sg598
F12600
sg31
S'146'
p2115
sg33
S'6'
sg34
S'Battle Frigate'
p2116
sbsS'9'
g5
(g1636
g7
NtRp2117
(dp2118
g1486
S'warship'
p2119
sg1488
(dp2120
g1641
(lp2121
I180
aI40
asg1677
(lp2122
I105
aI18
asg1643
(lp2123
I220
aI30
asg1645
(lp2124
I200
aI30
asg1647
(lp2125
I220
aI40
asg1683
(lp2126
I100
aI40
asg1685
(lp2127
I110
aI42
asg1687
(lp2128
I125
aI44
asg1655
(lp2129
I0
aI50
asg1657
(lp2130
I346
aI45
asg1659
(lp2131
I16
aI45
asg1661
(lp2132
I353
aI50
asg1663
(lp2133
I7
aI50
asg1665
(lp2134
I260
aI40
asg1667
(lp2135
I235
aI44
asg1669
(lp2136
I250
aI42
asg1671
(lp2137
I270
aI16
asg1673
(lp2138
I255
aI18
asg1679
(lp2139
I90
aI16
asg1649
(lp2140
I200
aI40
assg10
F150
sg11
F300
sg12
F600
sg13
g1512
sg25
S'test'
p2141
sg1514
S'large'
p2142
sg27
F6000
sg29
S'BCU'
p2143
sg1517
I20
sg1518
F8000
sg598
F16000
sg31
S'246'
p2144
sg33
S'9'
sg34
S'Battle Cruiser'
p2145
sbsS'8'
g5
(g1636
g7
NtRp2146
(dp2147
g1486
S'warship'
p2148
sg1488
(dp2149
g1641
(lp2150
I180
aI40
asg1677
(lp2151
I100
aI18
asg1643
(lp2152
I220
aI30
asg1645
(lp2153
I200
aI30
asg1683
(lp2154
I100
aI40
asg1685
(lp2155
I110
aI42
asg1687
(lp2156
I125
aI44
asg1657
(lp2157
I347
aI45
asg1659
(lp2158
I13
aI45
asg1661
(lp2159
I355
aI50
asg1663
(lp2160
I5
aI50
asg1665
(lp2161
I260
aI40
asg1667
(lp2162
I235
aI44
asg1669
(lp2163
I250
aI42
asg1673
(lp2164
I260
aI18
asg1649
(lp2165
I180
aI10
assg10
F135
sg11
F270
sg12
F540
sg13
g1512
sg25
S'test'
p2166
sg1514
S'large'
p2167
sg27
F5400
sg29
S'CRU'
p2168
sg1517
I18
sg1518
F3600
sg598
F14400
sg31
S'231'
p2169
sg33
S'8'
sg34
S'Cruiser'
p2170
sbsS'21'
p2171
g5
(g1636
g7
NtRp2172
(dp2173
g1486
S'platform'
p2174
sg1488
(dp2175
g1641
(lp2176
I180
aI16
asg1643
(lp2177
I180
aI16
asg1645
(lp2178
I180
aI16
asg1647
(lp2179
I180
aI16
asg1649
(lp2180
I180
aI16
asg1756
(lp2181
I180
aI16
asg1651
(lp2182
I180
aI16
asg1759
(lp2183
I0
aI16
asg1653
(lp2184
I0
aI16
asg1655
(lp2185
I0
aI16
asg1657
(lp2186
I0
aI16
asg1659
(lp2187
I0
aI16
asg1661
(lp2188
I0
aI16
asg1663
(lp2189
I0
aI16
asg1665
(lp2190
I270
aI16
asg1667
(lp2191
I270
aI16
asg1669
(lp2192
I270
aI16
asg1671
(lp2193
I270
aI16
asg1673
(lp2194
I270
aI16
asg1772
(lp2195
I270
aI16
asg1675
(lp2196
I270
aI16
asS'star-9'
p2197
(lp2198
I270
aI16
asS'star-8'
p2199
(lp2200
I270
aI16
asg1677
(lp2201
I90
aI16
asg1679
(lp2202
I90
aI16
asg1681
(lp2203
I90
aI16
asg1778
(lp2204
I90
aI16
asg1683
(lp2205
I90
aI16
asg1685
(lp2206
I90
aI16
asg1687
(lp2207
I90
aI16
asS'port-8'
p2208
(lp2209
I90
aI16
asS'port-9'
p2210
(lp2211
I90
aI16
asS'fore-9'
p2212
(lp2213
I0
aI16
asS'fore-8'
p2214
(lp2215
I0
aI16
asS'aft-9'
p2216
(lp2217
I180
aI16
asS'aft-8'
p2218
(lp2219
I180
aI16
assg10
F135
sg11
F270
sg12
F540
sg13
g1512
sg25
S'test'
p2220
sg1514
S'large'
p2221
sg27
F5400
sg29
S'HWP'
p2222
sg1517
I36
sg1518
F14400
sg598
F28800
sg31
S'221'
p2223
sg33
g2171
sg34
S'Heavy Weapons Platform'
p2224
sbss.