(lp1
(S'LND1-LND1'
p2
S'101'
p3
(dp4
S'fore'
p5
(lp6
S'25'
p7
ag7
aS'7'
aS'7'
aS'W1'
p8
aS'W1'
p9
aS'W1'
p10
aS'W1'
p11
as(dp12
S'fore-1'
p13
(dp14
S'facing'
p15
F0
sS'type'
p16
S'1'
sS'id'
p17
S'1'
sstp18
a(S'LFD2-LFD1'
p19
S'104'
p20
(dp21
g5
(lp22
S'26'
p23
ag23
ag23
aS'8'
aS'8'
aS'8'
aS'W1'
p24
aS'W1'
p25
aS'W1'
p26
aS'W1'
p27
as(dp28
S'fore-1'
p29
(dp30
g15
F0
sg16
S'1'
sg17
S'1'
sstp31
a(S'LPD3-LPD1'
p32
S'107'
p33
(dp34
g5
(lp35
S'27'
p36
ag36
ag36
ag36
aS'9'
aS'9'
aS'9'
aS'9'
aS'W1'
p37
aS'W1'
p38
aS'W1'
p39
aS'W1'
p40
as(dp41
S'fore-1'
p42
(dp43
g15
F0
sg16
S'1'
sg17
S'1'
sstp44
a.