(lp1
(S'HCO1-HCO-1'
p2
S'4'
(dp3
S'aft'
p4
(lp5
S'25'
p6
aS'4'
aS'W1'
p7
aS'W1'
p8
aS'W1'
p9
aS'W1'
p10
aS'W1'
p11
aS'W1'
p12
aS'W1'
p13
aS'W1'
p14
asS'star'
p15
(lp16
S'1'
aS'1'
aS'1'
ag6
aS'4'
aS'4'
aS'45'
p17
aS'7'
aS'7'
aS'7'
asS'port'
p18
(lp19
S'1'
aS'1'
aS'1'
ag6
aS'4'
aS'4'
ag17
aS'7'
aS'7'
aS'7'
asS'fore'
p20
(lp21
S'1'
aS'1'
aS'1'
ag6
aS'4'
aS'4'
ag17
aS'7'
aS'7'
aS'7'
as(dp22
S'aft-1'
p23
(dp24
S'facing'
p25
F0
sS'type'
p26
S'24'
p27
sS'id'
p28
S'1'
sstp29
a(S'HCO2-HCO-2'
p30
S'4'
(dp31
g4
(lp32
S'27'
p33
aS'6'
aS'W1'
p34
aS'W1'
p35
aS'W1'
p36
aS'W1'
p37
aS'W1'
p38
aS'W1'
p39
aS'W1'
p40
aS'W1'
p41
asg15
(lp42
g33
aS'3'
aS'3'
aS'3'
aS'53'
p43
aS'6'
aS'6'
aS'9'
aS'9'
aS'9'
asg18
(lp44
g33
aS'3'
aS'3'
aS'3'
ag43
aS'6'
aS'6'
aS'9'
aS'9'
aS'9'
asg20
(lp45
g33
aS'3'
aS'3'
aS'3'
ag43
aS'6'
aS'6'
aS'9'
aS'9'
aS'9'
as(dp46
S'aft-1'
p47
(dp48
g25
F180
sg26
S'32'
p49
sg28
S'1'
sstp50
a(S'HCO3-HCO-3'
p51
S'4'
(dp52
g4
(lp53
g33
aS'6'
aS'W1'
p54
aS'W1'
p55
aS'W1'
p56
aS'W1'
p57
aS'W1'
p58
aS'W1'
p59
aS'W1'
p60
aS'W1'
p61
asg15
(lp62
g33
aS'3'
aS'3'
aS'3'
ag43
aS'6'
aS'6'
aS'9'
aS'9'
aS'9'
asg18
(lp63
g33
aS'3'
aS'3'
aS'3'
ag43
aS'6'
aS'6'
aS'9'
aS'9'
aS'9'
asg20
(lp64
g33
aS'3'
aS'3'
aS'3'
ag43
aS'6'
aS'6'
aS'9'
aS'9'
aS'9'
as(dp65
S'aft-1'
p66
(dp67
g25
F90
sg26
g49
sg28
S'1'
sstp68
a(S'HCO4-HCO-4'
p69
S'4'
(dp70
g4
(lp71
g33
aS'6'
aS'W1'
p72
aS'W1'
p73
aS'W1'
p74
aS'W1'
p75
aS'W1'
p76
aS'W1'
p77
aS'W1'
p78
aS'W1'
p79
asg15
(lp80
g33
aS'3'
aS'3'
aS'3'
ag43
aS'6'
aS'6'
aS'9'
aS'9'
aS'9'
asg18
(lp81
g33
aS'3'
aS'3'
aS'3'
ag43
aS'6'
aS'6'
aS'9'
aS'9'
aS'9'
asg20
(lp82
g33
aS'3'
aS'3'
aS'3'
ag43
aS'6'
aS'6'
aS'9'
aS'9'
aS'9'
as(dp83
S'aft-1'
p84
(dp85
g25
F270
sg26
g49
sg28
S'1'
sstp86
a(S'FRG5-FRG-1'
p87
S'5'
(dp88
g4
(lp89
S'2'
aS'2'
aS'2'
aS'2'
aS'29'
p90
ag90
aS'4'
aS'4'
aS'W1'
p91
aS'W1'
p92
aS'W1'
p93
aS'W1'
p94
asg15
(lp95
S'2'
aS'2'
ag90
aS'6'
aS'8'
aS'8'
aS'W1'
p96
aS'W1'
p97
aS'W1'
p98
aS'W1'
p99
aS'W1'
p100
aS'W1'
p101
asg18
(lp102
S'2'
aS'2'
aS'6'
aS'8'
aS'8'
aS'8'
aS'W1'
p103
aS'W1'
p104
aS'W1'
p105
aS'W1'
p106
aS'W1'
p107
aS'W1'
p108
asg20
(lp109
S'2'
aS'2'
ag90
aS'6'
aS'6'
aS'8'
aS'8'
aS'8'
aS'W1'
p110
aS'W1'
p111
aS'W1'
p112
aS'W1'
p113
as(dp114
S'aft-1'
p115
(dp116
g25
F0
sg26
S'12'
p117
sg28
S'1'
ssS'star-1'
p118
(dp119
g25
F90
sg26
S'10'
p120
sg28
S'1'
ssS'port-1'
p121
(dp122
g25
F90
sg26
g120
sg28
S'1'
ssS'fore-1'
p123
(dp124
g25
F180
sg26
g117
sg28
S'1'
sstp125
a(S'DRN6-DRN-1'
p126
S'11'
p127
(dp128
g4
(lp129
g33
aS'3'
aS'3'
aS'3'
aS'3'
aS'33'
p130
ag130
ag130
ag130
aS'6'
aS'6'
aS'6'
aS'62'
p131
ag131
ag131
ag131
aS'9'
aS'9'
aS'W1'
p132
aS'W1'
p133
aS'W1'
p134
aS'W1'
p135
aS'W1'
p136
aS'W1'
p137
asg15
(lp138
g33
ag33
aS'3'
ag130
ag130
ag130
ag130
ag130
aS'6'
aS'6'
aS'6'
ag131
ag131
ag131
ag131
aS'9'
aS'9'
aS'9'
aS'W1'
p139
aS'W1'
p140
aS'W1'
p141
aS'W1'
p142
aS'W1'
p143
aS'W1'
p144
asg18
(lp145
g33
ag33
aS'3'
aS'3'
aS'3'
aS'3'
aS'3'
aS'3'
aS'3'
ag130
ag130
ag130
ag130
ag130
aS'6'
aS'6'
aS'6'
aS'9'
aS'9'
aS'9'
aS'W1'
p146
aS'W1'
p147
aS'W1'
p148
aS'W1'
p149
asg20
(lp150
g33
ag33
ag33
aS'3'
aS'3'
aS'3'
aS'3'
ag130
ag130
ag130
ag130
ag130
ag130
aS'6'
aS'6'
aS'6'
aS'9'
aS'9'
aS'9'
aS'9'
aS'W1'
p151
aS'W1'
p152
aS'W1'
p153
aS'W1'
p154
as(dp155
S'aft-1'
p156
(dp157
g25
F90
sg26
S'41'
p158
sg28
S'1'
ssS'star-1'
p159
(dp160
g25
F90
sg26
g158
sg28
S'1'
ssS'port-1'
p161
(dp162
g25
F180
sg26
g117
sg28
S'1'
ssS'fore-1'
p163
(dp164
g25
F0
sg26
g117
sg28
S'1'
sstp165
a(S'BCU7-HCU-1'
p166
S'10'
p167
(dp168
g4
(lp169
g33
ag33
ag130
ag130
ag130
ag130
aS'W1'
p170
aS'W1'
p171
aS'W1'
p172
aS'W1'
p173
aS'W1'
p174
aS'W1'
p175
aS'W1'
p176
aS'W1'
p177
aS'W2'
p178
aS'W2'
p179
aS'W2'
p180
aS'W2'
p181
aS'W2'
p182
aS'W2'
p183
aS'W2'
p184
aS'W2'
p185
asg15
(lp186
g33
ag33
aS'3'
aS'3'
aS'3'
ag130
ag130
ag130
ag130
ag130
aS'6'
aS'6'
aS'6'
aS'6'
aS'6'
aS'63'
p187
ag187
ag187
ag187
aS'9'
aS'9'
aS'9'
asg18
(lp188
g33
ag33
aS'3'
aS'3'
aS'3'
aS'3'
aS'3'
aS'3'
ag130
ag130
ag130
ag130
ag130
aS'6'
aS'6'
ag187
ag187
ag187
ag187
aS'9'
aS'9'
aS'9'
asg20
(lp189
g33
ag33
ag33
aS'3'
aS'3'
ag130
ag130
ag130
ag130
ag130
ag130
aS'6'
aS'6'
aS'6'
aS'9'
aS'9'
aS'9'
aS'9'
aS'9'
aS'9'
aS'9'
aS'9'
as(dp190
S'aft-1'
p191
(dp192
g25
F270
sg26
S'42'
p193
sg28
S'1'
ssS'aft-2'
p194
(dp195
g25
F270
sg26
g193
sg28
S'2'
sstp196
a(S'HCA8-BCA-1'
p197
S'14'
p198
(dp199
g4
(lp200
S'3'
aS'3'
aS'3'
aS'6'
aS'9'
aS'9'
aS'9'
aS'9'
aS'9'
aS'9'
aS'9'
aS'9'
aS'W1'
p201
aS'W1'
p202
aS'W1'
p203
aS'W1'
p204
asg15
(lp205
S'3'
aS'6'
aS'9'
aS'9'
aS'9'
aS'9'
aS'9'
aS'9'
aS'W1'
p206
aS'W1'
p207
aS'W1'
p208
aS'W1'
p209
aS'W1'
p210
aS'W1'
p211
aS'W1'
p212
aS'W1'
p213
asg18
(lp214
S'3'
aS'3'
aS'3'
aS'3'
aS'3'
aS'3'
aS'6'
aS'6'
aS'W1'
p215
aS'W1'
p216
aS'W1'
p217
aS'W1'
p218
aS'W1'
p219
aS'W1'
p220
aS'W1'
p221
aS'W1'
p222
asg20
(lp223
S'W1'
p224
aS'W1'
p225
aS'W1'
p226
aS'W1'
p227
aS'W1'
p228
aS'W1'
p229
aS'W1'
p230
aS'W1'
p231
aS'W2'
p232
aS'W2'
p233
aS'W2'
p234
aS'W2'
p235
aS'W2'
p236
aS'W2'
p237
aS'W2'
p238
aS'W2'
p239
as(dp240
S'aft-1'
p241
(dp242
g25
F90
sg26
g117
sg28
S'1'
ssS'star-1'
p243
(dp244
g25
F90
sg26
S'43'
p245
sg28
S'1'
sS'dronedesign'
p246
S'1'
ssS'port-1'
p247
(dp248
g25
F90
sg26
g245
sg28
S'1'
sg246
S'1'
ssS'fore-1'
p249
(dp250
g25
F90
sg26
g245
sg28
S'1'
sg246
S'1'
ssS'fore-2'
p251
(dp252
g25
F90
sg26
g245
sg28
S'2'
sg246
S'1'
sstp253
a(S'HCO9-Neutral Defender A'
p254
S'4'
(dp255
g4
(lp256
S'1'
aS'1'
aS'1'
aS'1'
aS'1'
aS'35'
p257
aS'4'
aS'7'
aS'7'
aS'7'
asg15
(lp258
g257
ag257
aS'4'
aS'7'
aS'W1'
p259
aS'W1'
p260
aS'W1'
p261
aS'W1'
p262
aS'W1'
p263
aS'W1'
p264
asg18
(lp265
S'W1'
p266
aS'W1'
p267
aS'W1'
p268
aS'W1'
p269
aS'W1'
p270
aS'W1'
p271
aS'W2'
p272
aS'W2'
p273
aS'W2'
p274
aS'W2'
p275
asg20
(lp276
S'1'
aS'1'
aS'1'
aS'1'
aS'1'
aS'4'
aS'7'
aS'7'
aS'7'
aS'7'
as(dp277
S'star-1'
p278
(dp279
g25
F90
sg26
S'14'
p280
sg28
S'1'
ssS'port-1'
p281
(dp282
g25
F90
sg26
g280
sg28
S'1'
ssS'port-2'
p283
(dp284
g25
F0
sg26
S'4'
sg28
S'2'
sstp285
a(S'HCO10-Neutral Defender B'
p286
S'4'
(dp287
g4
(lp288
S'1'
aS'1'
aS'1'
aS'1'
aS'1'
aS'4'
aS'56'
p289
aS'7'
aS'7'
aS'7'
asg15
(lp290
S'4'
ag289
ag289
aS'7'
aS'W1'
p291
aS'W1'
p292
aS'W1'
p293
aS'W1'
p294
aS'W1'
p295
aS'W1'
p296
asg18
(lp297
S'W1'
p298
aS'W1'
p299
aS'W1'
p300
aS'W1'
p301
aS'W1'
p302
aS'W1'
p303
aS'W2'
p304
aS'W2'
p305
aS'W2'
p306
aS'W2'
p307
asg20
(lp308
S'1'
aS'1'
aS'1'
aS'1'
aS'1'
aS'4'
aS'7'
aS'7'
aS'7'
aS'7'
as(dp309
S'star-1'
p310
(dp311
g25
F270
sg26
g257
sg28
S'1'
ssS'port-1'
p312
(dp313
g25
F270
sg26
g257
sg28
S'1'
ssS'port-2'
p314
(dp315
g25
F0
sg26
S'4'
sg28
S'2'
sstp316
a(S'HCO11-Neutral Defender C'
p317
S'4'
(dp318
g4
(lp319
S'1'
aS'1'
aS'4'
aS'7'
aS'7'
aS'7'
aS'W1'
p320
aS'W1'
p321
aS'W1'
p322
aS'W1'
p323
asg15
(lp324
S'57'
p325
ag325
aS'W1'
p326
aS'W1'
p327
aS'W1'
p328
aS'W1'
p329
aS'W1'
p330
aS'W1'
p331
aS'W1'
p332
aS'W1'
p333
asg18
(lp334
g325
ag325
aS'W1'
p335
aS'W1'
p336
aS'W1'
p337
aS'W1'
p338
aS'W1'
p339
aS'W1'
p340
aS'W1'
p341
aS'W1'
p342
asg20
(lp343
S'1'
aS'1'
aS'1'
aS'1'
aS'1'
aS'4'
aS'7'
aS'7'
aS'7'
aS'7'
as(dp344
S'aft-1'
p345
(dp346
g25
F0
sg26
S'4'
sg28
S'1'
ssS'star-1'
p347
(dp348
g25
F270
sg26
S'36'
p349
sg28
S'1'
ssS'port-1'
p350
(dp351
g25
F270
sg26
g349
sg28
S'1'
sstp352
a(S'LAS12-TRANSPORT-A'
p353
S'16'
p354
(dp355
S'aft'
p356
(lp357
S'1'
aS'25'
p358
aS'31'
p359
asS'star'
p360
(lp361
S'1'
aS'25'
p362
aS'31'
p363
aS'4'
asS'port'
p364
(lp365
S'1'
aS'25'
p366
aS'31'
p367
aS'4'
asS'fore'
p368
(lp369
S'1'
aS'25'
p370
aS'31'
p371
aS'7'
aS'7'
aS'7'
aS'7'
aS'W1'
p372
aS'W1'
p373
aS'W1'
p374
aS'W1'
p375
as(dp376
S'fore-1'
p377
(dp378
g25
F0
sg26
S'4'
sg28
S'1'
sstp379
a.